(dp0
V54bfbc97b1a28
p1
V54ff180da49c9
p2
sV54bfbc98189f5
p3
V54ff180dd0d75
p4
sV54bfbc81530a5
p5
V54ff18077a72d
p6
sV54bfbc732727e
p7
V54ff1803c58b2
p8
sV54bfbc99b9c3d
p9
V54ff180e331ce
p10
sV54bfbc9699a48
p11
V54ff180d1697e
p12
sV54bfbc8d5dcc0
p13
V54ff180a57bd8
p14
sV54bfbc810153d
p15
V54ff18072672f
p16
sV54bfbc7eb98a5
p17
V54ff1806cf4f1
p18
sV54bfbc7ce9dbd
p19
V54ff18067c493
p20
sV54bfbc9848082
p21
V54ff180dd213a
p22
sV54bfbc8707c05
p23
V54ff180919f32
p24
sV54bfbc8a0e940
p25
V54ff1809a1073
p26
sV54bfbc5c1ccd0
p27
V54ff17fd77061
p28
sV54bfbc8d771f3
p29
V54ff180ac80ed
p30
sV54bfbc7677ab5
p31
V54ff18048dd49
p32
sV54bfbc79705cd
p33
V54ff1805448e4
p34
sV54bfbc679ea4f
p35
V54ff1800e69a1
p36
sV54bfbc7dc7dbc
p37
V54ff18067a7df
p38
sV54bfbc7d744c3
p39
V54ff18067ba91
p40
sV54bfbc9688a35
p41
V54ff180d3ed17
p42
sV54bfbc893e728
p43
V54ff1808def80
p44
sV54bfbc8a5c9bc
p45
V54ff1808df4f6
p46
sV54bfbc86edf6c
p47
V54ff1808b1d2a
p48
sV54bfbc6491ecd
p49
V54ff180014ef3
p50
sV54bfbc739d343
p51
V54ff180440935
p52
sV54bfbc5cb2cc3
p53
V54ff17fdaf0fb
p54
sV54bfbc7698318
p55
V54ff18048e399
p56
sV54bfbc7ec7be9
p57
V54ff1806cde63
p58
sV54bfbc95c5cee
p59
V54ff180d17e3f
p60
sV54bfbc7d65a62
p61
V54ff18067b146
p62
sV54bfbc5d0a571
p63
V54ff17fde6059
p64
sV54bfbc5b46d4a
p65
V54ff17fd54cc6
p66
sV54bfbc71be06a
p67
V54ff18036489f
p68
sV54bfbc99f3f70
p69
V54ff180e34b44
p70
sV54bfbc7899c75
p71
V54ff18052a404
p72
sV54bfbc834138b
p73
V54ff180864810
p74
sV54bfbc8c79f07
p75
V54ff1809d285c
p76
sV54bfbc762f267
p77
V54ff1803ee955
p78
sV54bfbc929b228
p79
V54ff180c41921
p80
sV54bfbc87d8929
p81
V54ff18094e2af
p82
sV54bfbc97d0e39
p83
V54ff180da56ef
p84
sV54bfbc73209bf
p85
V54ff1803c4ec2
p86
sV54bfbc8f417ac
p87
V54ff180edc42b
p88
sV54bfbc6847bf5
p89
V54ff18011eae9
p90
sV54bfbc7eb78e5
p91
V54ff1806cdbe8
p92
sV54bfbc7e73086
p93
V54ff18067bc88
p94
sV54bfbc99caf19
p95
V54ff180e330a0
p96
sV54bfbc8f6fc26
p97
V54ff180b2041a
p98
sV54bfbc8a1cc0d
p99
V54ff1809782c5
p100
sV54bfbc935d53c
p101
V54ff180caf078
p102
sV54bfbc6e7c157
p103
V54ff18026cf1c
p104
sV54bfbc7f2b307
p105
V54ff1806a9448
p106
sV54bfbc81497f6
p107
V54ff18077a192
p108
sV54bfbc5c9c789
p109
V54ff17fdaeb01
p110
sV54bfbc602b3e4
p111
V54ff17feae466
p112
sV54bfbc5e8a226
p113
V54ff17fe5ad49
p114
sV54bfbc735884a
p115
V54ff180440d6f
p116
sV54bfbc71a3c2e
p117
V54ff180363c9c
p118
sV54bfbc7605232
p119
V54ff180466adc
p120
sV54bfbc921c4ee
p121
V54ff180c0d5dc
p122
sV54bfbc66b894a
p123
V54ff18008cab8
p124
sV54bfbc7cc42b6
p125
V54ff1806548f6
p126
sV54bfbc7129546
p127
V54ff180333c2d
p128
sV54bfbc792cec5
p129
V54ff18054259e
p130
sV54bfbc6b0aee4
p131
V54ff1801a4a7d
p132
sV54bfbc792ec52
p133
V54ff1805426b1
p134
sV54bfbc97c6e05
p135
V54ff180da5a3a
p136
sV54bfbc6d81eb9
p137
V54ff1801ea917
p138
sV54bfbc921f01f
p139
V54ff180c0d6ad
p140
sV54bfbc5e1aa55
p141
V54ff17fe28b05
p142
sV54bfbc5b48c75
p143
V54ff17fd54d40
p144
sV54bfbc7eb3fed
p145
V54ff1806cda96
p146
sV54bfbc942f1aa
p147
V54ff180c7ab41
p148
sV54bfbc71362a6
p149
V54ff180333ff0
p150
sV54bfbc99bfcbf
p151
V54ff180e33597
p152
sV54bfbc7ec973a
p153
V54ff1806cdf25
p154
sV54bfbc75c609d
p155
V54ff180440e4d
p156
sV54bfbc784bd35
p157
V54ff180504903
p158
sV54bfbc6c5b7f1
p159
V54ff18011da97
p160
sV54bfbc8c8ed85
p161
V54ff1809a1828
p162
sV54bfbc994386c
p163
V54ff180e32af7
p164
sV54bfbc90157c8
p165
V54ff180b21a77
p166
sV54bfbc6eae4af
p167
V54ff1802a2520
p168
sV54bfbc683eed0
p169
V54ff18011e53d
p170
sV54bfbc8f0c53b
p171
V54ff180af356b
p172
sV54bfbc5c278dc
p173
V54ff17fdad054
p174
sV54bfbc5e6995b
p175
V54ff180e5d0b9
p176
sV54bfbc7423fb9
p177
V54ff180442a0f
p178
sV54bfbc84aa556
p179
V54ff180867080
p180
sV54bfbc96902e0
p181
V54ff180d163bd
p182
sV54bfbc82af635
p183
V54ff1808183b3
p184
sV54bfbc656d7f6
p185
V54ff180e855fe
p186
sV54bfbc7939639
p187
V54ff180542c4f
p188
sV54bfbc7945a95
p189
V54ff180543108
p190
sV54bfbc7837521
p191
V54ff180504beb
p192
sV54bfbc6075fb1
p193
V54ff17fedf3d6
p194
sV54bfbc989f54f
p195
V54ff180f0eeb5
p196
sV54bfbc99d6097
p197
V54ff180e3413b
p198
sV54bfbc80528c8
p199
V54ff18075381b
p200
sV54bfbc6c321f7
p201
V54ff180174e69
p202
sV54bfbc6a5624e
p203
V54ff180176641
p204
sV54bfbc874c402
p205
V54ff180953838
p206
sV54bfbc5f18e03
p207
V54ff17fe5c07b
p208
sV54bfbc75bd2b3
p209
V54ff180423111
p210
sV54bfbc6e29527
p211
V54ff180246fba
p212
sV54bfbc92db1c1
p213
V54ff180c74a24
p214
sV54bfbc968222d
p215
V54ff180d3f219
p216
sV54bfbc66a0b23
p217
V54ff1800643d4
p218
sV54bfbc811b72d
p219
V54ff180727379
p220
sV54bfbc924acc3
p221
V54ff180c0e535
p222
sV54bfbc69b7071
p223
V54ff180175836
p224
sV54bfbc7c24767
p225
V54ff180652c80
p226
sV54bfbc70ba71f
p227
V54ff180332fc1
p228
sV54bfbc5fd53a0
p229
V54ff17fe8d53b
p230
sV54bfbc9298c3b
p231
V54ff180c417d8
p232
sV54bfbc88ba480
p233
V54ff18094f22b
p234
sV54bfbc8c8189a
p235
V54ff1809d266e
p236
sV54bfbc6f89364
p237
V54ff1802a65d5
p238
sV54bfbc88c0378
p239
V54ff180a5664a
p240
sV54bfbc9554291
p241
V54ff180ce4319
p242
sV54bfbc8955e99
p243
V54ff180a0c8fd
p244
sV54bfbc924600c
p245
V54ff180c0e366
p246
sV54bfbc5d1232e
p247
V54ff17fde6414
p248
sV54bfbc7eed760
p249
V54ff1806ce00a
p250
sV54bfbc94a1d83
p251
V54ff180cafd77
p252
sV54bfbc5d2f0ae
p253
V54ff17fde6ca6
p254
sV54bfbc5ead091
p255
V54ff17fe5accf
p256
sV54bfbc63877d7
p257
V54ff17ff286f1
p258
sV54bfbc97aba9d
p259
V54ff180da4b5a
p260
sV54bfbc8c73784
p261
V54ff1809a0883
p262
sV54bfbc5bda2c5
p263
V54ff17fd75689
p264
sV54bfbc6c519c8
p265
V54ff18011d672
p266
sV54bfbc7930b4c
p267
V54ff1805427b4
p268
sV54bfbc87c394b
p269
V54ff180a3296c
p270
sV54bfbc8ba25a5
p271
V54ff1809d38b9
p272
sV54bfbc61cda94
p273
V54ff17ff71f0a
p274
sV54bfbc5ca3a95
p275
V54ff17fde5a71
p276
sV54bfbc71caf77
p277
V54ff180eb1302
p278
sV54bfbc7855a9c
p279
V54ff180504720
p280
sV54bfbc7b75c6c
p281
V54ff1805f2074
p282
sV54bfbc8a482cb
p283
V54ff1808dfb72
p284
sV54bfbc7ab9269
p285
V54ff1805b35c8
p286
sV54bfbc7fdfa7e
p287
V54ff1806ef215
p288
sV54bfbc7f89775
p289
V54ff1806eef39
p290
sV54bfbc8d22feb
p291
V54ff180a56d9e
p292
sV54bfbc6e31ebd
p293
V54ff18026b748
p294
sV54bfbc73b22ef
p295
V54ff180eb2913
p296
sV54bfbc849ee1c
p297
V54ff180866c89
p298
sV54bfbc7b7f7fc
p299
V54ff180618a2c
p300
sV54bfbc7b543c1
p301
V54ff1805f11ab
p302
sV54bfbc874e160
p303
V54ff1809538e4
p304
sV54bfbc7d6be73
p305
V54ff18067b378
p306
sV54bfbc8f87f91
p307
V54ff180b202a1
p308
sV54bfbc85ce8fc
p309
V54ff180edb953
p310
sV54bfbc7011049
p311
V54ff1802d1891
p312
sV54bfbc61b258f
p313
V54ff17ff710ed
p314
sV54bfbc84a2ef5
p315
V54ff18088acb2
p316
sV54bfbc977a902
p317
V54ff180da5397
p318
sV54bfbc5c73d08
p319
V54ff17fdadfc6
p320
sV54bfbc8ea68d4
p321
V54ff180af36c1
p322
sV54bfbc6cc9841
p323
V54ff1801ea2ef
p324
sV54bfbc5b355e8
p325
V54ff17fd541fe
p326
sV54bfbc637b1c2
p327
V54ff180e82d8e
p328
sV54bfbc735a579
p329
V54ff1803c5842
p330
sV54bfbc6402acd
p331
V54ff17ff4c5cd
p332
sV54bfbc984fd64
p333
V54ff180dd23c4
p334
sV54bfbc65d9d19
p335
V54ff1800629b8
p336
sV54bfbc7640e36
p337
V54ff1803eff26
p338
sV54bfbc5fcf109
p339
V54ff17fe8d2f8
p340
sV54bfbc8d63d11
p341
V54ff180a57d6d
p342
sV54bfbc65e48bd
p343
V54ff1800621f1
p344
sV54bfbc7fc495c
p345
V54ff180725c33
p346
sV54bfbc735e650
p347
V54ff1803ee45d
p348
sV54bfbc9348bea
p349
V54ff180cae595
p350
sV54bfbc95b14ce
p351
V54ff180d1575e
p352
sV54bfbc93d4556
p353
V54ff180c74808
p354
sV54bfbc6bb0452
p355
V54ff1800e4880
p356
sV54bfbc615f81d
p357
V54ff17ff28614
p358
sV54bfbc93d9f19
p359
V54ff180c74cd4
p360
sV54bfbc70666c6
p361
V54ff1803007d3
p362
sV54bfbc9a11e3d
p363
V54ff180e5b9ce
p364
sV54bfbc6191bb5
p365
V54ff17ff28cce
p366
sV54bfbc8394647
p367
V54ff180843444
p368
sV54bfbc6fd91f8
p369
V54ff1802d0d16
p370
sV54bfbc76db3c6
p371
V54ff1804be374
p372
sV54bfbc6f6791c
p373
V54ff1802a452c
p374
sV54bfbc61c27c1
p375
V54ff17ff71579
p376
sV54bfbc8139a3c
p377
V54ff180751d64
p378
sV54bfbc871bf48
p379
V54ff1808de0a7
p380
sV54bfbc78c207e
p381
V54ff18052ab55
p382
sV54bfbc864e18b
p383
V54ff1808b1ec9
p384
sV54bfbc98e2fad
p385
V54ff180e1032a
p386
sV54bfbc6d63896
p387
V54ff18026bdd6
p388
sV54bfbc61d38e4
p389
V54ff17ff7225a
p390
sV54bfbc84e8564
p391
V54ff18088c86c
p392
sV54bfbc9545a23
p393
V54ff180ce38b2
p394
sV54bfbc6e2d46e
p395
V54ff180247104
p396
sV54bfbc91053fa
p397
V54ff180b507b6
p398
sV54bfbc70c5c07
p399
V54ff18033323b
p400
sV54bfbc67339a1
p401
V54ff18008edce
p402
sV54bfbc90b16c2
p403
V54ff180b76e57
p404
sV54bfbc89ad2a7
p405
V54ff180a0beea
p406
sV54bfbc5c29b73
p407
V54ff17fdad1af
p408
sV54bfbc6b23303
p409
V54ff1801c8c46
p410
sV54bfbc846b482
p411
V54ff1808668f0
p412
sV54bfbc80c1074
p413
V54ff1806ef55c
p414
sV54bfbc6749ad3
p415
V54ff18011c595
p416
sV54bfbc788ad1d
p417
V54ff180505fa6
p418
sV54bfbc67bf45f
p419
V54ff1800e6fc7
p420
sV54bfbc7951e36
p421
V54ff180eda945
p422
sV54bfbc742c7ca
p423
V54ff180466fad
p424
sV54bfbc8fdbc74
p425
V54ff180b5195c
p426
sV54bfbc5d25e35
p427
V54ff17fde72a9
p428
sV54bfbc7c46e8a
p429
V54ff180652d79
p430
sV54bfbc65ea7d3
p431
V54ff18003d587
p432
sV54bfbc889e340
p433
V54ff18094ea21
p434
sV54bfbc7ec43f4
p435
V54ff1806cdc9e
p436
sV54bfbc6b154f7
p437
V54ff1801a5207
p438
sV54bfbc69e4d28
p439
V54ff180eafdbc
p440
sV54bfbc6ccbd52
p441
V54ff1801ea44f
p442
sV54bfbc606c8ab
p443
V54ff17feafddf
p444
sV54bfbc5bebbea
p445
V54ff17fd75f1c
p446
sV54bfbc8c1f8a1
p447
V54ff1809a0904
p448
sV54bfbc90eb64e
p449
V54ff180b4fe4c
p450
sV54bfbc66cac5f
p451
V54ff18008d467
p452
sV54bfbc91551d6
p453
V54ff180b9bfe8
p454
sV54bfbc5c09221
p455
V54ff17fd767f9
p456
sV54bfbc794dbf0
p457
V54ff180eda830
p458
sV54bfbc7c35b82
p459
V54ff18065408c
p460
sV54bfbc8f55654
p461
V54ff180af2bd2
p462
sV54bfbc7155a30
p463
V54ff1803344f7
p464
sV54bfbc9a3f26d
p465
V54ff180e5ad69
p466
sV54bfbc98168f3
p467
V54ff180dd0cd3
p468
sV54bfbc6bba649
p469
V54ff18014b4d5
p470
sV54bfbc88a4ab2
p471
V54ff18094ed85
p472
sV54bfbc7356a89
p473
V54ff180440a13
p474
sV54bfbc76efe1c
p475
V54ff18048f9d1
p476
sV54bfbc5e30781
p477
V54ff180e5ceac
p478
sV54bfbc97d59f7
p479
V54ff180dd0867
p480
sV54bfbc90283d6
p481
V54ff180b4f7c4
p482
sV54bfbc73a7b3d
p483
V54ff1804414c5
p484
sV54bfbc8c75cfb
p485
V54ff1809d30e5
p486
sV54bfbc978dee1
p487
V54ff180da673a
p488
sV54bfbc65be312
p489
V54ff1800630c3
p490
sV54bfbc728d255
p491
V54ff180399cc6
p492
sV54bfbc71ec83a
p493
V54ff180365155
p494
sV54bfbc952cec2
p495
V54ff180cb0dbf
p496
sV54bfbc746024a
p497
V54ff1803c566b
p498
sV54bfbc8a26750
p499
V54ff1809a0f4e
p500
sV54bfbc67da579
p501
V54ff1800bc00c
p502
sV54bfbc5e99a4e
p503
V54ff17fe5b0b6
p504
sV54bfbc784dccb
p505
V54ff1805049e4
p506
sV54bfbc62c2c80
p507
V54ff17ff726b7
p508
sV54bfbc62c4ca2
p509
V54ff180e843d1
p510
sV54bfbc84efaa6
p511
V54ff18088c5ed
p512
sV54bfbc81d03a9
p513
V54ff1807db785
p514
sV54bfbc7388ba6
p515
V54ff1803ee715
p516
sV54bfbc5b27087
p517
V54ff17fd53809
p518
sV54bfbc9864ac9
p519
V54ff180e0fd5c
p520
sV54bfbc8a05ade
p521
V54ff180953be4
p522
sV54bfbc7563d10
p523
V54ff1803f0cf8
p524
sV54bfbc8ad6fe1
p525
V54ff1808e0af6
p526
sV54bfbc7804895
p527
V54ff1804bfb74
p528
sV54bfbc7cd3b34
p529
V54ff18067c198
p530
sV54bfbc6ea67c2
p531
V54ff18026e084
p532
sV54bfbc7639b95
p533
V54ff1803eeba2
p534
sV54bfbc6d77a8e
p535
V54ff18021daeb
p536
sV54bfbc9a4b32c
p537
V54ff180e5b3b2
p538
sV54bfbc8ee9c9c
p539
V54ff180b1eeab
p540
sV54bfbc8c65ac9
p541
V54ff18097a90f
p542
sV54bfbc8dc0638
p543
V54ff180ac8983
p544
sV54bfbc7b3fc63
p545
V54ff1805b1efa
p546
sV54bfbc643f692
p547
V54ff17ff4b9b3
p548
sV54bfbc8b9e8d6
p549
V54ff1809d3ad3
p550
sV54bfbc8324c23
p551
V54ff18081a1bb
p552
sV54bfbc791ee58
p553
V54ff18052a142
p554
sV54bfbc683ac6a
p555
V54ff1801e9222
p556
sV54bfbc96accae
p557
V54ff180d15d37
p558
sV54bfbc63e562d
p559
V54ff17ffd610c
p560
sV54bfbc8a2b326
p561
V54ff1809a0dfe
p562
sV54bfbc8112906
p563
V54ff180726eee
p564
sV54bfbc827b1a7
p565
V54ff1807dd46a
p566
sV54bfbc879dc48
p567
V54ff180979a26
p568
sV54bfbc7d7daa2
p569
V54ff18067bf66
p570
sV54bfbc6859b9a
p571
V54ff1801cb19a
p572
sV54bfbc71d3d14
p573
V54ff1803992f5
p574
sV54bfbc913fd2c
p575
V54ff180b9a83c
p576
sV54bfbc98a2eac
p577
V54ff180e10512
p578
sV54bfbc859a631
p579
V54ff180edb9fc
p580
sV54bfbc7a93430
p581
V54ff18057cd68
p582
sV54bfbc92a611f
p583
V54ff180c41f87
p584
sV54bfbc5cbd773
p585
V54ff17fdaf652
p586
sV54bfbc6b91268
p587
V54ff1801c978f
p588
sV54bfbc7290dcd
p589
V54ff180399e18
p590
sV54bfbc974697d
p591
V54ff180da6c2c
p592
sV54bfbc89680a5
p593
V54ff180a0c421
p594
sV54bfbc62ae739
p595
V54ff1800143aa
p596
sV54bfbc8532b57
p597
V54ff18088bd15
p598
sV54bfbc71c68cc
p599
V54ff180398a40
p600
sV54bfbc757985f
p601
V54ff1803f018b
p602
sV54bfbc61311e8
p603
V54ff17fee261e
p604
sV54bfbc73d0e09
p605
V54ff180441c99
p606
sV54bfbc7f23939
p607
V54ff1806cf15a
p608
sV54bfbc6108bfe
p609
V54ff17fee15d0
p610
sV54bfbc7f9ff3a
p611
V54ff180754057
p612
sV54bfbc61377f1
p613
V54ff17ffa4e1e
p614
sV54bfbc810e920
p615
V54ff180726d4b
p616
sV54bfbc8d6eb51
p617
V54ff180a85633
p618
sV54bfbc8d2ff56
p619
V54ff180a571f6
p620
sV54bfbc95d18bf
p621
V54ff180d3f878
p622
sV54bfbc616cb0f
p623
V54ff17ff28bb9
p624
sV54bfbc923dc30
p625
V54ff180c0e0c8
p626
sV54bfbc805c335
p627
V54ff180edb7a3
p628
sV54bfbc85e68aa
p629
V54ff1808b0706
p630
sV54bfbc9786cd6
p631
V54ff180da779c
p632
sV54bfbc993f14f
p633
V54ff180e32c3f
p634
sV54bfbc97d349d
p635
V54ff180da5599
p636
sV54bfbc6b1745f
p637
V54ff1801a52e2
p638
sV54bfbc6146887
p639
V54ff17ff70c37
p640
sV54bfbc88b68f5
p641
V54ff1809a0a7f
p642
sV54bfbc790d83d
p643
V54ff18052b6ec
p644
sV54bfbc9384207
p645
V54ff180c734e9
p646
sV54bfbc99181ec
p647
V54ff180e11dbc
p648
sV54bfbc5c18026
p649
V54ff17fd76e93
p650
sV54bfbc79576b7
p651
V54ff180edab3e
p652
sV54bfbc92d2146
p653
V54ff180c44367
p654
sV54bfbc8799652
p655
V54ff1809798e8
p656
sV54bfbc5fc7705
p657
V54ff17fe8d25c
p658
sV54bfbc6247cd0
p659
V54ff17ffd4dc3
p660
sV54bfbc6e5d5e8
p661
V54ff18026ba11
p662
sV54bfbc7cee266
p663
V54ff1806a7079
p664
sV54bfbc616705d
p665
V54ff17ff288d5
p666
sV54bfbc60a0371
p667
V54ff17fee0ae4
p668
sV54bfbc5ca9c4e
p669
V54ff17fdaedd4
p670
sV54bfbc84a5203
p671
V54ff180866e3f
p672
sV54bfbc966aa46
p673
V54ff180d1819e
p674
sV54bfbc75e5391
p675
V54ff1803ef664
p676
sV54bfbc707b524
p677
V54ff18030135f
p678
sV54bfbc87e8e8d
p679
V54ff180a30af4
p680
sV54bfbc862b1b5
p681
V54ff1808b0ae1
p682
sV54bfbc6642273
p683
V54ff18006228e
p684
sV54bfbc7943795
p685
V54ff18054330b
p686
sV54bfbc953824b
p687
V54ff180cb0e64
p688
sV54bfbc7287b3a
p689
V54ff180399a3c
p690
sV54bfbc8ae4103
p691
V54ff180a0b1a8
p692
sV54bfbc6f8cc88
p693
V54ff1802a62a6
p694
sV54bfbc6f48614
p695
V54ff180eb087d
p696
sV54bfbc6a7b71d
p697
V54ff1801a3d50
p698
sV54bfbc966e3fd
p699
V54ff180d6460a
p700
sV54bfbc7c4eefa
p701
V54ff18065308f
p702
sV54bfbc937e4fe
p703
V54ff180c44688
p704
sV54bfbc6163533
p705
V54ff180e833b8
p706
sV54bfbc70a4278
p707
V54ff1803019ac
p708
sV54bfbc73bc3d6
p709
V54ff1803c55b8
p710
sV54bfbc6a5d7ce
p711
V54ff180176dc8
p712
sV54bfbc9196f8f
p713
V54ff180bc4759
p714
sV54bfbc5f4c4cb
p715
V54ff17fe29bad
p716
sV54bfbc61e7cd1
p717
V54ff17ffa327c
p718
sV54bfbc703000a
p719
V54ff1803004cb
p720
sV54bfbc834f2b8
p721
V54ff180842820
p722
sV54bfbc849855a
p723
V54ff18088ac15
p724
sV54bfbc5ff24e0
p725
V54ff17fead241
p726
sV54bfbc82f40b5
p727
V54ff180819218
p728
sV54bfbc6236de1
p729
V54ff180e850a8
p730
sV54bfbc67d2637
p731
V54ff1800bd902
p732
sV54bfbc7925144
p733
V54ff18052a376
p734
sV54bfbc5b741cc
p735
V54ff17fd53936
p736
sV54bfbc88aa9b9
p737
V54ff18094f8e9
p738
sV54bfbc8ad2d15
p739
V54ff1808e08d7
p740
sV54bfbc7fc6d18
p741
V54ff180725d36
p742
sV54bfbc8dc8d3f
p743
V54ff180ac8ebb
p744
sV54bfbc893119e
p745
V54ff180a325a5
p746
sV54bfbc5bee651
p747
V54ff17fd76420
p748
sV54bfbc5bbd9ed
p749
V54ff17fd74218
p750
sV54bfbc6b4f3e2
p751
V54ff1801a3182
p752
sV54bfbc983a08d
p753
V54ff180dd1d0f
p754
sV54bfbc98e1076
p755
V54ff180e105f7
p756
sV54bfbc8fd58e7
p757
V54ff180b514a0
p758
sV54bfbc5f05279
p759
V54ff17fe8b51b
p760
sV54bfbc6027be1
p761
V54ff17feae290
p762
sV54bfbc73248c1
p763
V54ff1803f0b4f
p764
sV54bfbc7b88c85
p765
V54ff180618d45
p766
sV54bfbc8f85e95
p767
V54ff180b1ffb8
p768
sV54bfbc977c745
p769
V54ff180da5d62
p770
sV54bfbc63e9f02
p771
V54ff180e86318
p772
sV54bfbc7b7032d
p773
V54ff1805f17e7
p774
sV54bfbc7276011
p775
V54ff1803994ab
p776
sV54bfbc8635775
p777
V54ff1808b118e
p778
sV54bfbc63be9f9
p779
V54ff17ff4c4c3
p780
sV54bfbc9380565
p781
V54ff180c448f2
p782
sV54bfbc7304033
p783
V54ff1803c3d66
p784
sV54bfbc6fe7728
p785
V54ff1802d1524
p786
sV54bfbc756da54
p787
V54ff180421a24
p788
sV54bfbc8f102ca
p789
V54ff180af1fd0
p790
sV54bfbc90078e2
p791
V54ff180b9a6ea
p792
sV54bfbc8d57239
p793
V54ff180a579d8
p794
sV54bfbc82b972d
p795
V54ff180818886
p796
sV54bfbc8fea1ec
p797
V54ff180b76703
p798
sV54bfbc7702efe
p799
V54ff18048f2cd
p800
sV54bfbc6d8b6fa
p801
V54ff1801eae1b
p802
sV54bfbc8f68257
p803
V54ff180b20163
p804
sV54bfbc894628d
p805
V54ff180a31f74
p806
sV54bfbc772979e
p807
V54ff1804befcf
p808
sV54bfbc7106a3b
p809
V54ff180333455
p810
sV54bfbc814f145
p811
V54ff18077a4fb
p812
sV54bfbc8dbcb45
p813
V54ff180ac84c4
p814
sV54bfbc6719c49
p815
V54ff18008e881
p816
sV54bfbc70afea6
p817
V54ff180301dda
p818
sV54bfbc99e1d11
p819
V54ff180e5a8fb
p820
sV54bfbc813b72f
p821
V54ff180751e79
p822
sV54bfbc6eafef9
p823
V54ff1802a2640
p824
sV54bfbc6616f72
p825
V54ff1800635cc
p826
sV54bfbc68078b4
p827
V54ff1800e4443
p828
sV54bfbc5e2ccd1
p829
V54ff17fe294b3
p830
sV54bfbc7fe3274
p831
V54ff1806ef44e
p832
sV54bfbc8a4a79d
p833
V54ff1808dfc7e
p834
sV54bfbc65bc3d2
p835
V54ff18003d29f
p836
sV54bfbc979ac49
p837
V54ff180da6e4e
p838
sV54bfbc8dea951
p839
V54ff180ac9753
p840
sV54bfbc6f80f3a
p841
V54ff1802cff98
p842
sV54bfbc799f26a
p843
V54ff180544fb7
p844
sV54bfbc865b934
p845
V54ff180a0bb69
p846
sV54bfbc782619e
p847
V54ff1805043dc
p848
sV54bfbc95b5661
p849
V54ff180ce5c85
p850
sV54bfbc7d2a380
p851
V54ff1806a718b
p852
sV54bfbc87d0f83
p853
V54ff180a321c9
p854
sV54bfbc74e3dc5
p855
V54ff1804223af
p856
sV54bfbc7955942
p857
V54ff180edaa6e
p858
sV54bfbc7e95b22
p859
V54ff1806a93c4
p860
sV54bfbc9788d7f
p861
V54ff180dd06d3
p862
sV54bfbc753e0a2
p863
V54ff180464ef6
p864
sV54bfbc65c8dba
p865
V54ff180062503
p866
sV54bfbc75b19ee
p867
V54ff180eb1f58
p868
sV54bfbc745843b
p869
V54ff1803c5f8a
p870
sV54bfbc8c8b12f
p871
V54ff1809d1ff6
p872
sV54bfbc5bd103a
p873
V54ff17fd750a7
p874
sV54bfbc7aa0cd4
p875
V54ff18057d8bb
p876
sV54bfbc5b7f559
p877
V54ff17fd53f75
p878
sV54bfbc8db475f
p879
V54ff180ac7e7e
p880
sV54bfbc5b4adae
p881
V54ff17fd54db2
p882
sV54bfbc77277ac
p883
V54ff1804bef18
p884
sV54bfbc6092b4d
p885
V54ff17feaf253
p886
sV54bfbc63335b4
p887
V54ff180e838b3
p888
sV54bfbc5f426ee
p889
V54ff17fe5bd91
p890
sV54bfbc6f7535d
p891
V54ff1802a4d2a
p892
sV54bfbc819f8fe
p893
V54ff18077ae29
p894
sV54bfbc62eef4b
p895
V54ff18003c5ea
p896
sV54bfbc7e803a0
p897
V54ff18067a5d2
p898
sV54bfbc99ce99f
p899
V54ff180e342ea
p900
sV54bfbc87396ce
p901
V54ff18091a815
p902
sV54bfbc714ebe8
p903
V54ff180362723
p904
sV54bfbc8936d62
p905
V54ff1808dedb9
p906
sV54bfbc99d2332
p907
V54ff180e33dfb
p908
sV54bfbc7ae2b71
p909
V54ff1805b1856
p910
sV54bfbc7340f93
p911
V54ff1803c5953
p912
sV54bfbc5e7c847
p913
V54ff17fe5baf3
p914
sV54bfbc977fe91
p915
V54ff180da6288
p916
sV54bfbc65422d3
p917
V54ff17ff70b06
p918
sV54bfbc8e3dd29
p919
V54ff180af15ac
p920
sV54bfbc89eb81e
p921
V54ff1808df243
p922
sV54bfbc84b365b
p923
V54ff180867453
p924
sV54bfbc6f63ca6
p925
V54ff1802a3cca
p926
sV54bfbc67c1788
p927
V54ff180176c53
p928
sV54bfbc6562576
p929
V54ff17ffa48a8
p930
sV54bfbc92dd44e
p931
V54ff180c736ab
p932
sV54bfbc7dc9d44
p933
V54ff18067a85c
p934
sV54bfbc6528d46
p935
V54ff18003caa6
p936
sV54bfbc8dce481
p937
V54ff180eb19c0
p938
sV54bfbc9a54c22
p939
V54ff180e34ecb
p940
sV54bfbc62a905a
p941
V54ff180014081
p942
sV54bfbc6e69f97
p943
V54ff18026c70b
p944
sV54bfbc609c101
p945
V54ff17fedeab9
p946
sV54bfbc6eb54ea
p947
V54ff1802a29a7
p948
sV54bfbc6be7da5
p949
V54ff18014c73d
p950
sV54bfbc7f41cd8
p951
V54ff1806eeb6c
p952
sV54bfbc87d2d47
p953
V54ff180a3212a
p954
sV54bfbc6c7701f
p955
V54ff180176994
p956
sV54bfbc8ddc8f7
p957
V54ff180ac95d8
p958
sV54bfbc6d6ce49
p959
V54ff1801eb87c
p960
sV54bfbc8143a30
p961
V54ff1807521e4
p962
sV54bfbc72002de
p963
V54ff180398902
p964
sV54bfbc946103d
p965
V54ff180cb0525
p966
sV54bfbc7fafac4
p967
V54ff180edb532
p968
sV54bfbc6922acc
p969
V54ff18008f846
p970
sV54bfbc5b5330a
p971
V54ff17fd54fba
p972
sV54bfbc6556665
p973
V54ff17ffa44de
p974
sV54bfbc753fc1a
p975
V54ff180464f89
p976
sV54bfbc7d28315
p977
V54ff180654b03
p978
sV54bfbc8a5acd4
p979
V54ff18097999f
p980
sV54bfbc710479e
p981
V54ff180333510
p982
sV54bfbc60062c9
p983
V54ff17fead777
p984
sV54bfbc90abba8
p985
V54ff180b7632d
p986
sV54bfbc5b2d534
p987
V54ff17fd53ada
p988
sV54bfbc9610c72
p989
V54ff180d3efa4
p990
sV54bfbc5cb50ac
p991
V54ff17fdaf2d7
p992
sV54bfbc8a98fd8
p993
V54ff1808df973
p994
sV54bfbc5f09a42
p995
V54ff17fe8b7b8
p996
sV54bfbc7819e7f
p997
V54ff1804c016f
p998
sV54bfbc87da7e8
p999
V54ff180a31b94
p1000
sV54bfbc9344c09
p1001
V54ff180cae32d
p1002
sV54bfbc5fd3658
p1003
V54ff17fe8d438
p1004
sV54bfbc6f5d6a8
p1005
V54ff1802a4414
p1006
sV54bfbc68c9f2d
p1007
V54ff180175f0d
p1008
sV54bfbc8c56a3d
p1009
V54ff18091b9e3
p1010
sV54bfbc7eef8e5
p1011
V54ff1806ce0e4
p1012
sV54bfbc7c3f4c5
p1013
V54ff180653b38
p1014
sV54bfbc982b3f2
p1015
V54ff180dd147f
p1016
sV54bfbc6cb2ca4
p1017
V54ff1801e98b6
p1018
sV54bfbc8650224
p1019
V54ff1808ddedc
p1020
sV54bfbc718ec6c
p1021
V54ff180362e9b
p1022
sV54bfbc711692a
p1023
V54ff180eb0be9
p1024
sV54bfbc98a89cd
p1025
V54ff180e1083e
p1026
sV54bfbc79b1684
p1027
V54ff180545a4f
p1028
sV54bfbc99d409b
p1029
V54ff180e34054
p1030
sV54bfbc7fbcba7
p1031
V54ff180778cb1
p1032
sV54bfbc5b5c062
p1033
V54ff17fd743ff
p1034
sV54bfbc9530a34
p1035
V54ff180ce4169
p1036
sV54bfbc95bdb45
p1037
V54ff180d3f541
p1038
sV54bfbc6b1d527
p1039
V54ff1801c8983
p1040
sV54bfbc79a725d
p1041
V54ff18054555c
p1042
sV54bfbc6155c07
p1043
V54ff17ff28023
p1044
sV54bfbc866be46
p1045
V54ff180a31218
p1046
sV54bfbc7a58d8a
p1047
V54ff18057d7d1
p1048
sV54bfbc76d7921
p1049
V54ff1804be1c6
p1050
sV54bfbc902a180
p1051
V54ff180b4f8e2
p1052
sV54bfbc75bb668
p1053
V54ff18042309a
p1054
sV54bfbc6168fbd
p1055
V54ff17ff289eb
p1056
sV54bfbc64956e9
p1057
V54ff180015105
p1058
sV54bfbc81456dc
p1059
V54ff1807522c0
p1060
sV54bfbc6be1e01
p1061
V54ff18014c589
p1062
sV54bfbc71614b9
p1063
V54ff180334460
p1064
sV54bfbc7d7b558
p1065
V54ff18067bb28
p1066
sV54bfbc6d753a0
p1067
V54ff18021d898
p1068
sV54bfbc7c31de7
p1069
V54ff180653ebc
p1070
sV54bfbc9a036d8
p1071
V54ff180e34c0e
p1072
sV54bfbc7e03524
p1073
V54ff18067ac27
p1074
sV54bfbc7e7e59c
p1075
V54ff1806a880d
p1076
sV54bfbc6142b37
p1077
V54ff17ff26753
p1078
sV54bfbc7ec06e8
p1079
V54ff1806cfbd8
p1080
sV54bfbc63b2add
p1081
V54ff17ff4a387
p1082
sV54bfbc91004a6
p1083
V54ff180b50588
p1084
sV54bfbc7686be8
p1085
V54ff18048efc6
p1086
sV54bfbc8705f6d
p1087
V54ff180a32aa7
p1088
sV54bfbc8d41c34
p1089
V54ff180a56d08
p1090
sV54bfbc714302a
p1091
V54ff18033459e
p1092
sV54bfbc5f941cd
p1093
V54ff17fe5aa3a
p1094
sV54bfbc961a3d7
p1095
V54ff180d3f16d
p1096
sV54bfbc971e413
p1097
V54ff180d65a6a
p1098
sV54bfbc5d03d56
p1099
V54ff17fde53af
p1100
sV54bfbc7d67c83
p1101
V54ff18067b1fc
p1102
sV54bfbc915168d
p1103
V54ff180b9be28
p1104
sV54bfbc6096df6
p1105
V54ff17feafb5c
p1106
sV54bfbc65af215
p1107
V54ff17ffd45e7
p1108
sV54bfbc6cac8f3
p1109
V54ff1801e968b
p1110
sV54bfbc5e772d0
p1111
V54ff17fe5b3be
p1112
sV54bfbc715cb4c
p1113
V54ff1803347e4
p1114
sV54bfbc82b325d
p1115
V54ff180818579
p1116
sV54bfbc7c026d1
p1117
V54ff18061a4f2
p1118
sV54bfbc8f762ae
p1119
V54ff180b20845
p1120
sV54bfbc8b024f8
p1121
V54ff180a0ab47
p1122
sV54bfbc780c0bb
p1123
V54ff1804c0457
p1124
sV54bfbc7849d44
p1125
V54ff18050543a
p1126
sV54bfbc7e9f093
p1127
V54ff180edb174
p1128
sV54bfbc8eefade
p1129
V54ff180ac9e55
p1130
sV54bfbc83518ba
p1131
V54ff18084299d
p1132
sV54bfbc86269b0
p1133
V54ff1808b0899
p1134
sV54bfbc92a20ac
p1135
V54ff180c41d38
p1136
sV54bfbc71aec69
p1137
V54ff180364159
p1138
sV54bfbc674387b
p1139
V54ff18011c943
p1140
sV54bfbc6fdb1b2
p1141
V54ff1802d0ea7
p1142
sV54bfbc87467f8
p1143
V54ff18094d8dd
p1144
sV54bfbc5d2d208
p1145
V54ff17fde703b
p1146
sV54bfbc5b6c2bc
p1147
V54ff17fd749a8
p1148
sV54bfbc7ad13fc
p1149
V54ff1805b23e9
p1150
sV54bfbc844f790
p1151
V54ff180865c40
p1152
sV54bfbc83868c4
p1153
V54ff180842eb8
p1154
sV54bfbc857e125
p1155
V54ff180843f1f
p1156
sV54bfbc6d6b244
p1157
V54ff1802469d6
p1158
sV54bfbc93d63aa
p1159
V54ff180c74925
p1160
sV54bfbc8d14cce
p1161
V54ff18091be7b
p1162
sV54bfbc710adf7
p1163
V54ff180333594
p1164
sV54bfbc8d4d2a8
p1165
V54ff180a575bd
p1166
sV54bfbc610b70d
p1167
V54ff17fee14d6
p1168
sV54bfbc9979cdf
p1169
V54ff180e32a03
p1170
sV54bfbc7dbe50e
p1171
V54ff180655025
p1172
sV54bfbc838c7e9
p1173
V54ff180864905
p1174
sV54bfbc8bb5d9a
p1175
V54ff1809a23c3
p1176
sV54bfbc7af01be
p1177
V54ff18057e03c
p1178
sV54bfbc819d67b
p1179
V54ff18077ad33
p1180
sV54bfbc669c427
p1181
V54ff180064220
p1182
sV54bfbc706e024
p1183
V54ff180300d02
p1184
sV54bfbc8711b0d
p1185
V54ff1808b19b1
p1186
sV54bfbc6b6ad67
p1187
V54ff1801ca9a0
p1188
sV54bfbc5bb325b
p1189
V54ff17fd54625
p1190
sV54bfbc5e0552e
p1191
V54ff180e5c832
p1192
sV54bfbc672dff5
p1193
V54ff18008f0b1
p1194
sV54bfbc5dded43
p1195
V54ff17fde8727
p1196
sV54bfbc98f3daa
p1197
V54ff180e1147f
p1198
sV54bfbc5c8dd32
p1199
V54ff17fdadf07
p1200
sV54bfbc748a6dc
p1201
V54ff180467052
p1202
sV54bfbc67c71e7
p1203
V54ff1800bde81
p1204
sV54bfbc632bd9d
p1205
V54ff17ff4c770
p1206
sV54bfbc96867fc
p1207
V54ff180d3ec5b
p1208
sV54bfbc7c897c5
p1209
V54ff18065398f
p1210
sV54bfbc8d593bf
p1211
V54ff180a57a67
p1212
sV54bfbc7fa4b8f
p1213
V54ff1807528c5
p1214
sV54bfbc929ff3d
p1215
V54ff180c41bf5
p1216
sV54bfbc7d0f1b0
p1217
V54ff1806a7bd1
p1218
sV54bfbc72a61db
p1219
V54ff18039a44a
p1220
sV54bfbc76e6f10
p1221
V54ff1804becf2
p1222
sV54bfbc8f743f7
p1223
V54ff180b206f8
p1224
sV54bfbc953605f
p1225
V54ff180ce3e22
p1226
sV54bfbc73a106c
p1227
V54ff180466c50
p1228
sV54bfbc7f200c2
p1229
V54ff1806cef79
p1230
sV54bfbc873566b
p1231
V54ff180919997
p1232
sV54bfbc991a095
p1233
V54ff180e11679
p1234
sV54bfbc895c05d
p1235
V54ff180a0c82c
p1236
sV54bfbc6f512e0
p1237
V54ff1802a3d81
p1238
sV54bfbc818614e
p1239
V54ff1807797d7
p1240
sV54bfbc6955ba3
p1241
V54ff1800bd680
p1242
sV54bfbc77108a9
p1243
V54ff18048e494
p1244
sV54bfbc8f98717
p1245
V54ff180b4f44d
p1246
sV54bfbc81b7bdb
p1247
V54ff18077b6ae
p1248
sV54bfbc702acb9
p1249
V54ff180300116
p1250
sV54bfbc7f5a803
p1251
V54ff1806ee6b3
p1252
sV54bfbc673b292
p1253
V54ff18008f2eb
p1254
sV54bfbc5ca5b66
p1255
V54ff17fde5f3c
p1256
sV54bfbc5e26fbd
p1257
V54ff17fe29258
p1258
sV54bfbc7bedad3
p1259
V54ff180619f49
p1260
sV54bfbc6c6e887
p1261
V54ff18011e155
p1262
sV54bfbc968e5f2
p1263
V54ff180d162ca
p1264
sV54bfbc8437af1
p1265
V54ff180843d0b
p1266
sV54bfbc5cbb5b5
p1267
V54ff17fdaf82e
p1268
sV54bfbc87a6888
p1269
V54ff180a560c8
p1270
sV54bfbc5ec76c1
p1271
V54ff17fe8caa9
p1272
sV54bfbc6657557
p1273
V54ff180061dfe
p1274
sV54bfbc71683e1
p1275
V54ff180eb1009
p1276
sV54bfbc71c4d02
p1277
V54ff180eb11ed
p1278
sV54bfbc6b49444
p1279
V54ff180177d02
p1280
sV54bfbc8aab9e5
p1281
V54ff1808dffcf
p1282
sV54bfbc5fd716d
p1283
V54ff17fe8d5cf
p1284
sV54bfbc9a49278
p1285
V54ff180e5b2a2
p1286
sV54bfbc7ac165b
p1287
V54ff1805b2339
p1288
sV54bfbc5fbba35
p1289
V54ff17fe8cd56
p1290
sV54bfbc64ea699
p1291
V54ff180016372
p1292
sV54bfbc7c3b6df
p1293
V54ff1806543da
p1294
sV54bfbc8e05419
p1295
V54ff180b1ef93
p1296
sV54bfbc7aa5c36
p1297
V54ff18057da39
p1298
sV54bfbc6c3b8df
p1299
V54ff1801767ae
p1300
sV54bfbc845aff7
p1301
V54ff180866386
p1302
sV54bfbc7b68119
p1303
V54ff1805f1e00
p1304
sV54bfbc6117b7a
p1305
V54ff17fee1c4a
p1306
sV54bfbc79778ba
p1307
V54ff180544cf8
p1308
sV54bfbc825fe97
p1309
V54ff1807dc6cd
p1310
sV54bfbc6849d0f
p1311
V54ff18011ebbe
p1312
sV54bfbc7462274
p1313
V54ff1803c5044
p1314
sV54bfbc914cc6b
p1315
V54ff180b9bbbd
p1316
sV54bfbc7b9c12e
p1317
V54ff1806198f8
p1318
sV54bfbc657d224
p1319
V54ff17ffd43fd
p1320
sV54bfbc714a24d
p1321
V54ff1803625ef
p1322
sV54bfbc77011a3
p1323
V54ff1804bdca8
p1324
sV54bfbc6dd6c72
p1325
V54ff1802457d1
p1326
sV54bfbc7d7f8e7
p1327
V54ff18067c010
p1328
sV54bfbc6c4bca4
p1329
V54ff18011d3ce
p1330
sV54bfbc70709ba
p1331
V54ff180300e40
p1332
sV54bfbc700590d
p1333
V54ff1802d5d1e
p1334
sV54bfbc92ac50f
p1335
V54ff180c422b6
p1336
sV54bfbc684c761
p1337
V54ff18014ae66
p1338
sV54bfbc71e6699
p1339
V54ff180398ccb
p1340
sV54bfbc99415ab
p1341
V54ff180e32d8a
p1342
sV54bfbc752abc2
p1343
V54ff180422c34
p1344
sV54bfbc878d352
p1345
V54ff180a56768
p1346
sV54bfbc6b5ef90
p1347
V54ff1801e8e84
p1348
sV54bfbc76e3c96
p1349
V54ff1804beac3
p1350
sV54bfbc98aeb69
p1351
V54ff180e10225
p1352
sV54bfbc900b2ed
p1353
V54ff180b9a9c1
p1354
sV54bfbc9215669
p1355
V54ff180c0d368
p1356
sV54bfbc619ebf0
p1357
V54ff17ff292e9
p1358
sV54bfbc82efbc7
p1359
V54ff180818fe2
p1360
sV54bfbc90dfd7c
p1361
V54ff180b9a23d
p1362
sV54bfbc7f87617
p1363
V54ff1806eeea0
p1364
sV54bfbc67c935c
p1365
V54ff1800bdf6c
p1366
sV54bfbc71aca0d
p1367
V54ff180364091
p1368
sV54bfbc7aea939
p1369
V54ff18057e8bf
p1370
sV54bfbc6569d8b
p1371
V54ff17ffa4b9d
p1372
sV54bfbc745e725
p1373
V54ff180eb22f2
p1374
sV54bfbc5ec5a9d
p1375
V54ff17fe8bb0f
p1376
sV54bfbc7faa061
p1377
V54ff1806ef341
p1378
sV54bfbc637747b
p1379
V54ff17ff273e6
p1380
sV54bfbc78a810b
p1381
V54ff180506bde
p1382
sV54bfbc60b6973
p1383
V54ff17fee02eb
p1384
sV54bfbc63ebb92
p1385
V54ff18003c53d
p1386
sV54bfbc7e902c8
p1387
V54ff18067af64
p1388
sV54bfbc9947781
p1389
V54ff180e327d2
p1390
sV54bfbc773987c
p1391
V54ff1804bf255
p1392
sV54bfbc8444d2d
p1393
V54ff18086564a
p1394
sV54bfbc7f1232f
p1395
V54ff1806ce92b
p1396
sV54bfbc74202e8
p1397
V54ff180442761
p1398
sV54bfbc993960c
p1399
V54ff180e12232
p1400
sV54bfbc65b104f
p1401
V54ff17ffd415b
p1402
sV54bfbc7aecb1e
p1403
V54ff18057e46f
p1404
sV54bfbc8430edd
p1405
V54ff180843b9e
p1406
sV54bfbc9221a7f
p1407
V54ff180c0e83a
p1408
sV54bfbc6361e58
p1409
V54ff180e5d506
p1410
sV54bfbc90b33bb
p1411
V54ff180b9a44c
p1412
sV54bfbc61d19cc
p1413
V54ff17ff72193
p1414
sV54bfbc7a14fac
p1415
V54ff18057c8d2
p1416
sV54bfbc978bc99
p1417
V54ff180da6548
p1418
sV54bfbc817925d
p1419
V54ff180779c91
p1420
sV54bfbc6b278fc
p1421
V54ff1801c8e0a
p1422
sV54bfbc741c730
p1423
V54ff180442407
p1424
sV54bfbc6e6810d
p1425
V54ff18026c5ff
p1426
sV54bfbc788f4d6
p1427
V54ff180eda5b1
p1428
sV54bfbc6e89277
p1429
V54ff18026d683
p1430
sV54bfbc96ed0f0
p1431
V54ff180d16b73
p1432
sV54bfbc8a52bda
p1433
V54ff1809793f4
p1434
sV54bfbc80602aa
p1435
V54ff180726037
p1436
sV54bfbc8ad511c
p1437
V54ff1808e09ce
p1438
sV54bfbc7ce80fb
p1439
V54ff18067c3dc
p1440
sV54bfbc625b2ce
p1441
V54ff17ffd5dc0
p1442
sV54bfbc7b5ac90
p1443
V54ff1805f15c2
p1444
sV54bfbc67f3230
p1445
V54ff1800be06e
p1446
sV54bfbc8ba6e39
p1447
V54ff1809d323a
p1448
sV54bfbc6bcb772
p1449
V54ff18014ba50
p1450
sV54bfbc8117dd9
p1451
V54ff1807271ac
p1452
sV54bfbc7893479
p1453
V54ff180506319
p1454
sV54bfbc60869cb
p1455
V54ff17fee0757
p1456
sV54bfbc5fc5cb2
p1457
V54ff17fe8cc42
p1458
sV54bfbc5c2107c
p1459
V54ff17fd77351
p1460
sV54bfbc78c5bcb
p1461
V54ff18052ac6d
p1462
sV54bfbc91d5c13
p1463
V54ff180c0c449
p1464
sV54bfbc6bb65e0
p1465
V54ff18014b389
p1466
sV54bfbc879ffdd
p1467
V54ff180a56289
p1468
sV54bfbc7b6c404
p1469
V54ff18061842e
p1470
sV54bfbc6953f51
p1471
V54ff1800bd52c
p1472
sV54bfbc81c6a88
p1473
V54ff1807cd1ce
p1474
sV54bfbc88c66cd
p1475
V54ff180a5632f
p1476
sV54bfbc6cda3df
p1477
V54ff18021dd15
p1478
sV54bfbc7063f42
p1479
V54ff180300935
p1480
sV54bfbc6b66d3f
p1481
V54ff1801ca828
p1482
sV54bfbc8b43b4e
p1483
V54ff1809a1c68
p1484
sV54bfbc6c2dc4d
p1485
V54ff18014cdc1
p1486
sV54bfbc5f2859d
p1487
V54ff17fe8c4e6
p1488
sV54bfbc9716bae
p1489
V54ff180d6567e
p1490
sV54bfbc719dcee
p1491
V54ff1803639df
p1492
sV54bfbc65d3bc9
p1493
V54ff180062842
p1494
sV54bfbc8bc88b6
p1495
V54ff18091ab3b
p1496
sV54bfbc65c0a1f
p1497
V54ff1800637b5
p1498
sV54bfbc756f59a
p1499
V54ff180421c3a
p1500
sV54bfbc632dc32
p1501
V54ff17ff4bb8a
p1502
sV54bfbc7fc2d69
p1503
V54ff180725b80
p1504
sV54bfbc65776b9
p1505
V54ff17ffa516e
p1506
sV54bfbc9906d53
p1507
V54ff180e109fd
p1508
sV54bfbc7f58a14
p1509
V54ff1806eed40
p1510
sV54bfbc5b7c44d
p1511
V54ff17fd53e64
p1512
sV54bfbc731214d
p1513
V54ff1803c4511
p1514
sV54bfbc783d91a
p1515
V54ff18050523d
p1516
sV54bfbc783523a
p1517
V54ff180504820
p1518
sV54bfbc64edf6b
p1519
V54ff1800164e6
p1520
sV54bfbc7fd0ebb
p1521
V54ff18075278f
p1522
sV54bfbc648cb55
p1523
V54ff180014c38
p1524
sV54bfbc791735a
p1525
V54ff180529f39
p1526
sV54bfbc9331e9f
p1527
V54ff180c44262
p1528
sV54bfbc6646ccc
p1529
V54ff1800633cd
p1530
sV54bfbc8b3cc2e
p1531
V54ff1809a1aa0
p1532
sV54bfbc7498b73
p1533
V54ff1804220f4
p1534
sV54bfbc66bd060
p1535
V54ff18008cd36
p1536
sV54bfbc83431d7
p1537
V54ff1808422fd
p1538
sV54bfbc728224e
p1539
V54ff180399822
p1540
sV54bfbc8266f54
p1541
V54ff1807dcb3d
p1542
sV54bfbc5f4979b
p1543
V54ff17fe29b14
p1544
sV54bfbc954d53b
p1545
V54ff180ce45fe
p1546
sV54bfbc9141aac
p1547
V54ff180b9abeb
p1548
sV54bfbc89e79ef
p1549
V54ff18091b27a
p1550
sV54bfbc67b86ed
p1551
V54ff18014bed7
p1552
sV54bfbc7be63a8
p1553
V54ff180619520
p1554
sV54bfbc661905a
p1555
V54ff180062062
p1556
sV54bfbc61c8665
p1557
V54ff17ff7178e
p1558
sV54bfbc69ecd02
p1559
V54ff1800e4fce
p1560
sV54bfbc675634f
p1561
V54ff1800e5607
p1562
sV54bfbc5ef1093
p1563
V54ff17fe8b23e
p1564
sV54bfbc68dd27b
p1565
V54ff1801ca0e8
p1566
sV54bfbc7ae51de
p1567
V54ff1805b156a
p1568
sV54bfbc60a33a9
p1569
V54ff17feaebd2
p1570
sV54bfbc6e975bd
p1571
V54ff18026dc17
p1572
sV54bfbc7451f2e
p1573
V54ff1803c4c4d
p1574
sV54bfbc5e16c34
p1575
V54ff17fe286d5
p1576
sV54bfbc8f6c15c
p1577
V54ff180b1fb53
p1578
sV54bfbc5f07621
p1579
V54ff17fe8b611
p1580
sV54bfbc719bea8
p1581
V54ff180363901
p1582
sV54bfbc8296f06
p1583
V54ff1807ddf5f
p1584
sV54bfbc89b30fd
p1585
V54ff180a0afac
p1586
sV54bfbc7f51172
p1587
V54ff1806ee543
p1588
sV54bfbc8f7e39f
p1589
V54ff180b1fa42
p1590
sV54bfbc6b2143f
p1591
V54ff1801c8b5c
p1592
sV54bfbc8554f53
p1593
V54ff18088aee7
p1594
sV54bfbc892ab46
p1595
V54ff180a3262c
p1596
sV54bfbc7b91789
p1597
V54ff180618fdf
p1598
sV54bfbc8de371e
p1599
V54ff180edc246
p1600
sV54bfbc9837fa1
p1601
V54ff180dd194a
p1602
sV54bfbc982366d
p1603
V54ff180dd11e9
p1604
sV54bfbc7c8b4f0
p1605
V54ff180653432
p1606
sV54bfbc6c7a484
p1607
V54ff1801751b8
p1608
sV54bfbc5de0ffc
p1609
V54ff180e5c31c
p1610
sV54bfbc756219e
p1611
V54ff1803f0c8f
p1612
sV54bfbc85d155a
p1613
V54ff1808af017
p1614
sV54bfbc8d38508
p1615
V54ff180edc06d
p1616
sV54bfbc971ffa5
p1617
V54ff180d65b3c
p1618
sV54bfbc87261cb
p1619
V54ff1808de5ee
p1620
sV54bfbc623ad93
p1621
V54ff17ffa4266
p1622
sV54bfbc6ba0253
p1623
V54ff1801c9ce0
p1624
sV54bfbc76dd347
p1625
V54ff1804be4af
p1626
sV54bfbc733916b
p1627
V54ff1803ee5cc
p1628
sV54bfbc8029f0d
p1629
V54ff1806ef7a2
p1630
sV54bfbc8c9c56c
p1631
V54ff1809d14a5
p1632
sV54bfbc917b1f5
p1633
V54ff180bc37fc
p1634
sV54bfbc6763d13
p1635
V54ff1800e5d33
p1636
sV54bfbc8aba5db
p1637
V54ff18097a139
p1638
sV54bfbc92ca894
p1639
V54ff180edcb3c
p1640
sV54bfbc8721e35
p1641
V54ff1808de47c
p1642
sV54bfbc6407ef8
p1643
V54ff17ff4a59f
p1644
sV54bfbc8bd0984
p1645
V54ff18097aa98
p1646
sV54bfbc75ead5b
p1647
V54ff1803ef925
p1648
sV54bfbc9206c25
p1649
V54ff180c0cdf6
p1650
sV54bfbc745c863
p1651
V54ff180422ca5
p1652
sV54bfbc6ce7042
p1653
V54ff1801eb364
p1654
sV54bfbc8eb2aee
p1655
V54ff180b1edfc
p1656
sV54bfbc6640091
p1657
V54ff1800638ea
p1658
sV54bfbc914ae1b
p1659
V54ff180b9badd
p1660
sV54bfbc791d034
p1661
V54ff18052a0d0
p1662
sV54bfbc5d43432
p1663
V54ff17fde7a2c
p1664
sV54bfbc6dde46d
p1665
V54ff180245a5d
p1666
sV54bfbc6e72102
p1667
V54ff18026c7ed
p1668
sV54bfbc711df82
p1669
V54ff180333637
p1670
sV54bfbc8041bfa
p1671
V54ff1807530bc
p1672
sV54bfbc7349688
p1673
V54ff180421b13
p1674
sV54bfbc7337413
p1675
V54ff1803c5d1e
p1676
sV54bfbc9194dcd
p1677
V54ff180bc45bc
p1678
sV54bfbc7c2f938
p1679
V54ff180ce5937
p1680
sV54bfbc81d5aeb
p1681
V54ff1807dba18
p1682
sV54bfbc6c43d1f
p1683
V54ff18011d037
p1684
sV54bfbc7e78aac
p1685
V54ff1806a6d2b
p1686
sV54bfbc8e5c947
p1687
V54ff180af30e6
p1688
sV54bfbc7fd63b9
p1689
V54ff180752ad5
p1690
sV54bfbc6f71dbf
p1691
V54ff1802a4b31
p1692
sV54bfbc8b9619d
p1693
V54ff1809d4003
p1694
sV54bfbc5bb5dbb
p1695
V54ff17fd546b3
p1696
sV54bfbc73c0539
p1697
V54ff1803f0926
p1698
sV54bfbc6d8f52d
p1699
V54ff1801eb5db
p1700
sV54bfbc66a787d
p1701
V54ff18006457b
p1702
sV54bfbc6000124
p1703
V54ff17fead326
p1704
sV54bfbc6c021ea
p1705
V54ff180174d42
p1706
sV54bfbc7ab358b
p1707
V54ff1805b3728
p1708
sV54bfbc7bdcc43
p1709
V54ff180619355
p1710
sV54bfbc7a87dc9
p1711
V54ff18057d617
p1712
sV54bfbc63ca379
p1713
V54ff17ff718c1
p1714
sV54bfbc65e0920
p1715
V54ff18003d61e
p1716
sV54bfbc981d2e4
p1717
V54ff180dd0f57
p1718
sV54bfbc93582dc
p1719
V54ff180caee41
p1720
sV54bfbc7979e33
p1721
V54ff180544e38
p1722
sV54bfbc7cc0840
p1723
V54ff180653861
p1724
sV54bfbc7a1b467
p1725
V54ff18057d12f
p1726
sV54bfbc8940365
p1727
V54ff180a320a8
p1728
sV54bfbc937c220
p1729
V54ff180c44530
p1730
sV54bfbc7a0bae1
p1731
V54ff18057c3a0
p1732
sV54bfbc5dce26a
p1733
V54ff17fde8179
p1734
sV54bfbc7cddba8
p1735
V54ff18067b5d1
p1736
sV54bfbc6d11914
p1737
V54ff18021e61c
p1738
sV54bfbc78dc7f2
p1739
V54ff18052b48f
p1740
sV54bfbc87de114
p1741
V54ff180a3174d
p1742
sV54bfbc7199d7d
p1743
V54ff180363706
p1744
sV54bfbc9a07b7a
p1745
V54ff180e3500b
p1746
sV54bfbc6d0bd8c
p1747
V54ff18021e2b2
p1748
sV54bfbc8d3457b
p1749
V54ff180a57350
p1750
sV54bfbc81b23f6
p1751
V54ff18077b4f0
p1752
sV54bfbc9438282
p1753
V54ff180c75559
p1754
sV54bfbc627c5be
p1755
V54ff17ffd6ac3
p1756
sV54bfbc93364b4
p1757
V54ff180cadc7c
p1758
sV54bfbc960f101
p1759
V54ff180d3ee65
p1760
sV54bfbc5f1716f
p1761
V54ff17fe5bfa7
p1762
sV54bfbc8c89300
p1763
V54ff1809d2329
p1764
sV54bfbc789b697
p1765
V54ff1805069e7
p1766
sV54bfbc8e65fdf
p1767
V54ff180af34ac
p1768
sV54bfbc683cb1c
p1769
V54ff18011e41b
p1770
sV54bfbc769c348
p1771
V54ff18048e8e3
p1772
sV54bfbc75c4664
p1773
V54ff1803eef94
p1774
sV54bfbc782bc35
p1775
V54ff180504610
p1776
sV54bfbc6a06542
p1777
V54ff180eb017b
p1778
sV54bfbc8bd29e5
p1779
V54ff1809a0801
p1780
sV54bfbc65052ea
p1781
V54ff18003be1f
p1782
sV54bfbc8abf20d
p1783
V54ff18097a21b
p1784
sV54bfbc7310379
p1785
V54ff1803c4482
p1786
sV54bfbc6e6be15
p1787
V54ff18026c8e0
p1788
sV54bfbc97ad815
p1789
V54ff180da4cef
p1790
sV54bfbc8264a6c
p1791
V54ff1807dc9e1
p1792
sV54bfbc928097a
p1793
V54ff180c0e779
p1794
sV54bfbc753a4a7
p1795
V54ff180464caa
p1796
sV54bfbc5fe840a
p1797
V54ff17feacccf
p1798
sV54bfbc7600638
p1799
V54ff180465c8e
p1800
sV54bfbc66ccb3b
p1801
V54ff18008d559
p1802
sV54bfbc6ebd541
p1803
V54ff1802a2e09
p1804
sV54bfbc936b467
p1805
V54ff180c739e2
p1806
sV54bfbc99c3736
p1807
V54ff180e33826
p1808
sV54bfbc61ddaa2
p1809
V54ff17ffa29d2
p1810
sV54bfbc92c6bb8
p1811
V54ff180c43096
p1812
sV54bfbc8b8e7f1
p1813
V54ff180a0b2c2
p1814
sV54bfbc7d1100e
p1815
V54ff1806a854e
p1816
sV54bfbc7800086
p1817
V54ff1804bfda9
p1818
sV54bfbc9184db3
p1819
V54ff180bc3c7c
p1820
sV54bfbc70752bf
p1821
V54ff1803010b2
p1822
sV54bfbc91d84fd
p1823
V54ff180c0c56f
p1824
sV54bfbc9524ac7
p1825
V54ff180cb075f
p1826
sV54bfbc65e6462
p1827
V54ff180061d19
p1828
sV54bfbc8756123
p1829
V54ff180953d4a
p1830
sV54bfbc7f3dc4a
p1831
V54ff1806ee2e8
p1832
sV54bfbc6151da8
p1833
V54ff17ff27f0b
p1834
sV54bfbc75451dd
p1835
V54ff1804658a1
p1836
sV54bfbc8da8478
p1837
V54ff180ac78ab
p1838
sV54bfbc727ee2c
p1839
V54ff1803652f1
p1840
sV54bfbc5e09900
p1841
V54ff180e5cab0
p1842
sV54bfbc79e3dd3
p1843
V54ff180543594
p1844
sV54bfbc63754aa
p1845
V54ff17ff272eb
p1846
sV54bfbc694f849
p1847
V54ff1800bd12a
p1848
sV54bfbc9606df4
p1849
V54ff180d402f2
p1850
sV54bfbc8928dbe
p1851
V54ff180a326e6
p1852
sV54bfbc71c0645
p1853
V54ff1803649d6
p1854
sV54bfbc66ad066
p1855
V54ff180064bab
p1856
sV54bfbc5ddd006
p1857
V54ff17fde85d7
p1858
sV54bfbc99f1cac
p1859
V54ff180e349c2
p1860
sV54bfbc7ceba30
p1861
V54ff18067c52b
p1862
sV54bfbc706b7ce
p1863
V54ff180300bd3
p1864
sV54bfbc6d5803e
p1865
V54ff180246410
p1866
sV54bfbc8c9a60a
p1867
V54ff1809d1639
p1868
sV54bfbc8c27ef6
p1869
V54ff1809d3013
p1870
sV54bfbc66c238c
p1871
V54ff18008cf7d
p1872
sV54bfbc5e0f972
p1873
V54ff17fe281a3
p1874
sV54bfbc67f11ee
p1875
V54ff1800bd7af
p1876
sV54bfbc7f0a8af
p1877
V54ff1806ce5a4
p1878
sV54bfbc5bb0f53
p1879
V54ff17fd5450c
p1880
sV54bfbc8217155
p1881
V54ff1807dc1c3
p1882
sV54bfbc8f49580
p1883
V54ff180af27b5
p1884
sV54bfbc6ff08b3
p1885
V54ff1802d1cc7
p1886
sV54bfbc979f345
p1887
V54ff180dd077c
p1888
sV54bfbc7541b06
p1889
V54ff180465256
p1890
sV54bfbc614a487
p1891
V54ff17ff27add
p1892
sV54bfbc675447e
p1893
V54ff1800e5878
p1894
sV54bfbc715a6f5
p1895
V54ff18033474b
p1896
sV54bfbc62311d2
p1897
V54ff17ffa3e7b
p1898
sV54bfbc72bd69c
p1899
V54ff18039ac62
p1900
sV54bfbc872451f
p1901
V54ff1808de529
p1902
sV54bfbc97c27c3
p1903
V54ff180dd05df
p1904
sV54bfbc75aa448
p1905
V54ff180466f17
p1906
sV54bfbc63ad1d3
p1907
V54ff17ff4a16a
p1908
sV54bfbc7c1e997
p1909
V54ff1806529e8
p1910
sV54bfbc9116374
p1911
V54ff180b7603b
p1912
sV54bfbc62ecd89
p1913
V54ff18003c332
p1914
sV54bfbc859653c
p1915
V54ff1808af20a
p1916
sV54bfbc957fdbd
p1917
V54ff180d1558a
p1918
sV54bfbc8bad0c1
p1919
V54ff1809d3506
p1920
sV54bfbc86291ea
p1921
V54ff1808b09c4
p1922
sV54bfbc5c54537
p1923
V54ff17fdad8b6
p1924
sV54bfbc8f4b342
p1925
V54ff180af2891
p1926
sV54bfbc982d740
p1927
V54ff180dd1553
p1928
sV54bfbc6606cc3
p1929
V54ff180062b76
p1930
sV54bfbc810a91a
p1931
V54ff180726b77
p1932
sV54bfbc5e8035c
p1933
V54ff17fe5ba81
p1934
sV54bfbc99e5563
p1935
V54ff180e5a9c4
p1936
sV54bfbc5e7216e
p1937
V54ff17fe5b2b4
p1938
sV54bfbc67524c1
p1939
V54ff1800e5998
p1940
sV54bfbc8334a98
p1941
V54ff18081a8f1
p1942
sV54bfbc89b997b
p1943
V54ff18091a62d
p1944
sV54bfbc804eb75
p1945
V54ff18075364e
p1946
sV54bfbc78a6379
p1947
V54ff180506b44
p1948
sV54bfbc90c564b
p1949
V54ff180b51009
p1950
sV54bfbc6857d17
p1951
V54ff18011c689
p1952
sV54bfbc60cd687
p1953
V54ff17fedee7f
p1954
sV54bfbc89f2782
p1955
V54ff1808b166c
p1956
sV54bfbc72b737a
p1957
V54ff18039aac1
p1958
sV54bfbc6f6e6a1
p1959
V54ff1802a4947
p1960
sV54bfbc95d7286
p1961
V54ff180d1823a
p1962
sV54bfbc817ebbf
p1963
V54ff18077995d
p1964
sV54bfbc5ea556b
p1965
V54ff17fe5b7a7
p1966
sV54bfbc8e3bcc0
p1967
V54ff180af14dc
p1968
sV54bfbc733f215
p1969
V54ff180eb21b1
p1970
sV54bfbc7913420
p1971
V54ff18052b991
p1972
sV54bfbc9533e79
p1973
V54ff180ce3f4c
p1974
sV54bfbc60a7c73
p1975
V54ff17fedff72
p1976
sV54bfbc75d4f5f
p1977
V54ff1804653e2
p1978
sV54bfbc7ac9922
p1979
V54ff1805b2fda
p1980
sV54bfbc684e93a
p1981
V54ff18014af4e
p1982
sV54bfbc67cb498
p1983
V54ff18014bf52
p1984
sV54bfbc7c33d5a
p1985
V54ff180653fb2
p1986
sV54bfbc656f86b
p1987
V54ff17ffa5014
p1988
sV54bfbc6eb37c9
p1989
V54ff1802a286e
p1990
sV54bfbc8a3e80d
p1991
V54ff1809789a4
p1992
sV54bfbc8646071
p1993
V54ff180919cc9
p1994
sV54bfbc5f0df39
p1995
V54ff17fe8b951
p1996
sV54bfbc79f3560
p1997
V54ff180543d54
p1998
sV54bfbc81a53a9
p1999
V54ff18077b183
p2000
sV54bfbc85d5aa3
p2001
V54ff1808af8b7
p2002
sV54bfbc802d46d
p2003
V54ff180edb3d6
p2004
sV54bfbc6852eac
p2005
V54ff180eb0291
p2006
sV54bfbc6e781ff
p2007
V54ff18026cd77
p2008
sV54bfbc8670745
p2009
V54ff180a30ebf
p2010
sV54bfbc7b77c1b
p2011
V54ff1806187fd
p2012
sV54bfbc9929866
p2013
V54ff180e11ce8
p2014
sV54bfbc87a21e8
p2015
V54ff180a561e8
p2016
sV54bfbc664b511
p2017
V54ff180061bb0
p2018
sV54bfbc827d9ec
p2019
V54ff1807dd5a4
p2020
sV54bfbc6b98df9
p2021
V54ff1801c9a2f
p2022
sV54bfbc8c25e14
p2023
V54ff1809d40cb
p2024
sV54bfbc684345c
p2025
V54ff18011e93e
p2026
sV54bfbc99bdb98
p2027
V54ff180e33424
p2028
sV54bfbc5d362e1
p2029
V54ff17fe27095
p2030
sV54bfbc8d21032
p2031
V54ff180a56bde
p2032
sV54bfbc83905cb
p2033
V54ff18084322d
p2034
sV54bfbc674ddcc
p2035
V54ff180176a47
p2036
sV54bfbc7aa366d
p2037
V54ff18057d989
p2038
sV54bfbc88ccaec
p2039
V54ff180a55ef9
p2040
sV54bfbc7cd61b1
p2041
V54ff18067c909
p2042
sV54bfbc98a120d
p2043
V54ff180f0f019
p2044
sV54bfbc7ce4896
p2045
V54ff18067bea0
p2046
sV54bfbc6c5956a
p2047
V54ff18011d983
p2048
sV54bfbc60a5411
p2049
V54ff17feaed39
p2050
sV54bfbc84edd2f
p2051
V54ff18088c6fd
p2052
sV54bfbc935f379
p2053
V54ff180caf1d3
p2054
sV54bfbc6648c97
p2055
V54ff180062fd7
p2056
sV54bfbc6f9c863
p2057
V54ff1802d0594
p2058
sV54bfbc972929f
p2059
V54ff180d65ef6
p2060
sV54bfbc990e48a
p2061
V54ff180e111d3
p2062
sV54bfbc95e2d38
p2063
V54ff180d3e70b
p2064
sV54bfbc68be3ab
p2065
V54ff1801a2a24
p2066
sV54bfbc6ba7ff1
p2067
V54ff1801caa57
p2068
sV54bfbc69f0955
p2069
V54ff1800e50fe
p2070
sV54bfbc8427874
p2071
V54ff18084385f
p2072
sV54bfbc6b2cceb
p2073
V54ff1801c8fe6
p2074
sV54bfbc845539d
p2075
V54ff180866098
p2076
sV54bfbc8274707
p2077
V54ff1807dd110
p2078
sV54bfbc773be33
p2079
V54ff1804bf346
p2080
sV54bfbc68e1a0f
p2081
V54ff1801ca2d4
p2082
sV54bfbc76822ac
p2083
V54ff18048ed7b
p2084
sV54bfbc7fcec58
p2085
V54ff180752606
p2086
sV54bfbc63ef710
p2087
V54ff17ffd5f3a
p2088
sV54bfbc863cec1
p2089
V54ff18091a38a
p2090
sV54bfbc77257fd
p2091
V54ff1804beddb
p2092
sV54bfbc9798624
p2093
V54ff180da6d27
p2094
sV54bfbc7ada1ee
p2095
V54ff1805b2041
p2096
sV54bfbc88a076c
p2097
V54ff18094eaf8
p2098
sV54bfbc83040dc
p2099
V54ff1808193d0
p2100
sV54bfbc8cad7a4
p2101
V54ff1809d1b32
p2102
sV54bfbc9a3d570
p2103
V54ff180e5aca2
p2104
sV54bfbc6a70855
p2105
V54ff1801a3866
p2106
sV54bfbc92d6f67
p2107
V54ff180c43ff5
p2108
sV54bfbc77e90bf
p2109
V54ff1804bf8d0
p2110
sV54bfbc8654478
p2111
V54ff1808de00f
p2112
sV54bfbc9576ee4
p2113
V54ff180ce5db5
p2114
sV54bfbc92ccc0a
p2115
V54ff180c432cc
p2116
sV54bfbc76f303a
p2117
V54ff1804bdb16
p2118
sV54bfbc858d50c
p2119
V54ff18088b126
p2120
sV54bfbc952248f
p2121
V54ff180cb0834
p2122
sV54bfbc97d9f77
p2123
V54ff180dd09d6
p2124
sV54bfbc614c2bb
p2125
V54ff17ff27bfa
p2126
sV54bfbc6610ea9
p2127
V54ff180062ad5
p2128
sV54bfbc64874d6
p2129
V54ff180014a56
p2130
sV54bfbc97355b3
p2131
V54ff180d669b5
p2132
sV54bfbc8f476e4
p2133
V54ff180af26f1
p2134
sV54bfbc62b040b
p2135
V54ff1800144af
p2136
sV54bfbc8539935
p2137
V54ff18088b9ff
p2138
sV54bfbc93635d6
p2139
V54ff180caf484
p2140
sV54bfbc7a975c2
p2141
V54ff1805b247a
p2142
sV54bfbc8f9aa2a
p2143
V54ff180b4f693
p2144
sV54bfbc81279e7
p2145
V54ff180727997
p2146
sV54bfbc9167c5e
p2147
V54ff180bc2a84
p2148
sV54bfbc873746f
p2149
V54ff180919b86
p2150
sV54bfbc845345a
p2151
V54ff180865fbc
p2152
sV54bfbc8934ef5
p2153
V54ff180a3251e
p2154
sV54bfbc6fc6ce0
p2155
V54ff1802d0a51
p2156
sV54bfbc91886fb
p2157
V54ff180bc416c
p2158
sV54bfbc5e7e612
p2159
V54ff17fe5ba10
p2160
sV54bfbc9459453
p2161
V54ff180cafa4e
p2162
sV54bfbc5d2134e
p2163
V54ff17fde6b77
p2164
sV54bfbc6945055
p2165
V54ff1800bca12
p2166
sV54bfbc6c6433d
p2167
V54ff18011dd73
p2168
sV54bfbc811d857
p2169
V54ff1807274a0
p2170
sV54bfbc7f10760
p2171
V54ff1806ce865
p2172
sV54bfbc61a0df2
p2173
V54ff17ff4aa63
p2174
sV54bfbc8f9c8a0
p2175
V54ff180b4fc8b
p2176
sV54bfbc7112773
p2177
V54ff180eb0f0e
p2178
sV54bfbc672fda9
p2179
V54ff18008eff7
p2180
sV54bfbc7205edf
p2181
V54ff18036562d
p2182
sV54bfbc636bc2d
p2183
V54ff180e5d770
p2184
sV54bfbc73b0386
p2185
V54ff180465945
p2186
sV54bfbc6b62f7c
p2187
V54ff1801cb028
p2188
sV54bfbc90a7783
p2189
V54ff180b7620a
p2190
sV54bfbc6ba3fc3
p2191
V54ff1801cb100
p2192
sV54bfbc75602a5
p2193
V54ff180421a8b
p2194
sV54bfbc72bf5d6
p2195
V54ff1803c47bd
p2196
sV54bfbc901d72f
p2197
V54ff180b21ce0
p2198
sV54bfbc7350f4e
p2199
V54ff180440cbd
p2200
sV54bfbc5b851cf
p2201
V54ff17fd54286
p2202
sV54bfbc62330f6
p2203
V54ff17ffa3f87
p2204
sV54bfbc7829de4
p2205
V54ff18050456f
p2206
sV54bfbc8d3a4f6
p2207
V54ff180a56a9a
p2208
sV54bfbc96e4762
p2209
V54ff180d3fa3b
p2210
sV54bfbc8d1ca16
p2211
V54ff18091c276
p2212
sV54bfbc7d1b5f6
p2213
V54ff1806a7c8b
p2214
sV54bfbc84acbc2
p2215
V54ff180867143
p2216
sV54bfbc5f88a79
p2217
V54ff17fe29e20
p2218
sV54bfbc90117c0
p2219
V54ff180b9b6e5
p2220
sV54bfbc919d7ad
p2221
V54ff180bc49bd
p2222
sV54bfbc65b4dfb
p2223
V54ff18003d072
p2224
sV54bfbc64d4e40
p2225
V54ff180015a8b
p2226
sV54bfbc73c81fa
p2227
V54ff180421ba7
p2228
sV54bfbc6249a17
p2229
V54ff17ffd5062
p2230
sV54bfbc61c6526
p2231
V54ff17ff716ea
p2232
sV54bfbc6381003
p2233
V54ff180e82f1d
p2234
sV54bfbc6d403f9
p2235
V54ff18021c1fc
p2236
sV54bfbc9855e25
p2237
V54ff180dd261a
p2238
sV54bfbc7acc769
p2239
V54ff1805b27e6
p2240
sV54bfbc8432e48
p2241
V54ff180843c4e
p2242
sV54bfbc715353f
p2243
V54ff1803343ca
p2244
sV54bfbc610f75b
p2245
V54ff17fee184e
p2246
sV54bfbc7b07448
p2247
V54ff1805b3186
p2248
sV54bfbc856ccf6
p2249
V54ff18086755f
p2250
sV54bfbc71d1337
p2251
V54ff180398f29
p2252
sV54bfbc605d65a
p2253
V54ff17feaf48f
p2254
sV54bfbc87dc2e3
p2255
V54ff180a31aa1
p2256
sV54bfbc8442fd8
p2257
V54ff1808653da
p2258
sV54bfbc5ebe79f
p2259
V54ff180e5d2ec
p2260
sV54bfbc7f487fd
p2261
V54ff1806eea41
p2262
sV54bfbc8180b1c
p2263
V54ff180779a52
p2264
sV54bfbc66d298e
p2265
V54ff18008d83e
p2266
sV54bfbc5eb36b0
p2267
V54ff17fe8bed9
p2268
sV54bfbc82bb742
p2269
V54ff180818953
p2270
sV54bfbc68a8c60
p2271
V54ff18017728c
p2272
sV54bfbc8a217c9
p2273
V54ff18097843d
p2274
sV54bfbc8da36d6
p2275
V54ff180ac8632
p2276
sV54bfbc63c6a41
p2277
V54ff17ff4c9d1
p2278
sV54bfbc70c0683
p2279
V54ff180333143
p2280
sV54bfbc93561d2
p2281
V54ff180caed0c
p2282
sV54bfbc7f54b72
p2283
V54ff1806ee932
p2284
sV54bfbc84c827f
p2285
V54ff180843702
p2286
sV54bfbc69eeb0a
p2287
V54ff1800e5065
p2288
sV54bfbc94633e8
p2289
V54ff180cb00c4
p2290
sV54bfbc65eead1
p2291
V54ff18003d73d
p2292
sV54bfbc7d06c36
p2293
V54ff1806a88d5
p2294
sV54bfbc84b1547
p2295
V54ff18086736a
p2296
sV54bfbc99279ab
p2297
V54ff180e11c2d
p2298
sV54bfbc68c1b49
p2299
V54ff1801a2c6a
p2300
sV54bfbc71aa1e7
p2301
V54ff180363f78
p2302
sV54bfbc6e7a333
p2303
V54ff18026ce49
p2304
sV54bfbc8ae22ec
p2305
V54ff180979531
p2306
sV54bfbc8105292
p2307
V54ff1807268ef
p2308
sV54bfbc794bdf1
p2309
V54ff180eda6f7
p2310
sV54bfbc973dfcd
p2311
V54ff180da47f9
p2312
sV54bfbc80f1e6c
p2313
V54ff18072665a
p2314
sV54bfbc8aee13e
p2315
V54ff1809a1775
p2316
sV54bfbc98f1ba4
p2317
V54ff180e11345
p2318
sV54bfbc84cc22f
p2319
V54ff180864b83
p2320
sV54bfbc8f651ba
p2321
V54ff180b1f8b3
p2322
sV54bfbc733577d
p2323
V54ff1803c50de
p2324
sV54bfbc5b447d8
p2325
V54ff17fd54c42
p2326
sV54bfbc5c7cc4b
p2327
V54ff17fdad3fd
p2328
sV54bfbc8a902f7
p2329
V54ff18097949c
p2330
sV54bfbc9857c26
p2331
V54ff180dd26b6
p2332
sV54bfbc8381da3
p2333
V54ff180842d38
p2334
sV54bfbc73abd85
p2335
V54ff18044163c
p2336
sV54bfbc81a89ba
p2337
V54ff18077afdc
p2338
sV54bfbc6439a95
p2339
V54ff17ff4b743
p2340
sV54bfbc6863d81
p2341
V54ff1801ca527
p2342
sV54bfbc78be3c2
p2343
V54ff18052aa2d
p2344
sV54bfbc6fcd4b0
p2345
V54ff1802d080d
p2346
sV54bfbc73ca1f9
p2347
V54ff180440fa2
p2348
sV54bfbc784fd9a
p2349
V54ff180504ae1
p2350
sV54bfbc8de5c97
p2351
V54ff180ac9966
p2352
sV54bfbc8f84143
p2353
V54ff180b1fe9b
p2354
sV54bfbc98e4f45
p2355
V54ff180e10baa
p2356
sV54bfbc623cc0f
p2357
V54ff17ffa4331
p2358
sV54bfbc6b5ae25
p2359
V54ff1801e8c71
p2360
sV54bfbc731e968
p2361
V54ff1803c4dff
p2362
sV54bfbc5c636f5
p2363
V54ff17fdae6db
p2364
sV54bfbc7a055f0
p2365
V54ff18057c154
p2366
sV54bfbc87dfcf2
p2367
V54ff180a31663
p2368
sV54bfbc81234fe
p2369
V54ff18072775f
p2370
sV54bfbc829aec9
p2371
V54ff1807de131
p2372
sV54bfbc69a02bf
p2373
V54ff1800e49a5
p2374
sV54bfbc5dcba8a
p2375
V54ff17fde8047
p2376
sV54bfbc6073573
p2377
V54ff17fedf2e2
p2378
sV54bfbc96da334
p2379
V54ff180d17457
p2380
sV54bfbc870c1bf
p2381
V54ff1808b23a9
p2382
sV54bfbc715f050
p2383
V54ff180362375
p2384
sV54bfbc61e9bd6
p2385
V54ff17ffa33ba
p2386
sV54bfbc5d4be38
p2387
V54ff17fe27811
p2388
sV54bfbc813fe0f
p2389
V54ff18075203b
p2390
sV54bfbc6d92ce4
p2391
V54ff18021c92f
p2392
sV54bfbc7e84502
p2393
V54ff1806a8b1c
p2394
sV54bfbc943a11f
p2395
V54ff180c7572c
p2396
sV54bfbc7655338
p2397
V54ff18048d526
p2398
sV54bfbc894a2b7
p2399
V54ff180a319e1
p2400
sV54bfbc760b754
p2401
V54ff180466176
p2402
sV54bfbc7718198
p2403
V54ff1804bdd8a
p2404
sV54bfbc7b42ad4
p2405
V54ff1805b218f
p2406
sV54bfbc76eb4ef
p2407
V54ff18048fdfa
p2408
sV54bfbc68d8134
p2409
V54ff1801c9ea9
p2410
sV54bfbc5c60df5
p2411
V54ff17fdae5d4
p2412
sV54bfbc60bac3a
p2413
V54ff17fee0419
p2414
sV54bfbc5fcd3a3
p2415
V54ff17fe8d197
p2416
sV54bfbc79633d7
p2417
V54ff180544662
p2418
sV54bfbc9570d95
p2419
V54ff180ce605b
p2420
sV54bfbc71382b6
p2421
V54ff180333ec3
p2422
sV54bfbc9782751
p2423
V54ff180da63c1
p2424
sV54bfbc834834c
p2425
V54ff1808424e3
p2426
sV54bfbc653be92
p2427
V54ff17ff4ca59
p2428
sV54bfbc6bd559f
p2429
V54ff18014c10f
p2430
sV54bfbc80580fe
p2431
V54ff18077917b
p2432
sV54bfbc6267ab9
p2433
V54ff180e85b29
p2434
sV54bfbc90d374b
p2435
V54ff180b76d1e
p2436
sV54bfbc6cd475e
p2437
V54ff18026c121
p2438
sV54bfbc92c2e93
p2439
V54ff180c42e71
p2440
sV54bfbc92ae36b
p2441
V54ff180c423d1
p2442
sV54bfbc70201f2
p2443
V54ff1802f3fdf
p2444
sV54bfbc7812c44
p2445
V54ff1804c06ad
p2446
sV54bfbc6c7dfc9
p2447
V54ff1801e930f
p2448
sV54bfbc84b85f7
p2449
V54ff18081aaac
p2450
sV54bfbc767f86a
p2451
V54ff18048ea0d
p2452
sV54bfbc614ff32
p2453
V54ff17ff27def
p2454
sV54bfbc6d83cf6
p2455
V54ff1801eab8d
p2456
sV54bfbc64830a8
p2457
V54ff1800147c4
p2458
sV54bfbc611a40f
p2459
V54ff17fee1d6f
p2460
sV54bfbc643d7a7
p2461
V54ff17ff4b8e7
p2462
sV54bfbc77126e8
p2463
V54ff1804901e3
p2464
sV54bfbc8ab7626
p2465
V54ff1808e02e0
p2466
sV54bfbc99359ee
p2467
V54ff180e11fba
p2468
sV54bfbc942b80e
p2469
V54ff180c7aa55
p2470
sV54bfbc6866609
p2471
V54ff1801c9604
p2472
sV54bfbc89e5b13
p2473
V54ff18091b197
p2474
sV54bfbc84ce7d5
p2475
V54ff180843e91
p2476
sV54bfbc827f96c
p2477
V54ff1807dd67e
p2478
sV54bfbc7f30ec5
p2479
V54ff1806ee7fb
p2480
sV54bfbc914f6be
p2481
V54ff180b9bd0d
p2482
sV54bfbc833db10
p2483
V54ff18081adba
p2484
sV54bfbc78458b2
p2485
V54ff18050574e
p2486
sV54bfbc6c3fbbc
p2487
V54ff18011cdf6
p2488
sV54bfbc8f5f0ad
p2489
V54ff180af2f0a
p2490
sV54bfbc90a9962
p2491
V54ff180b762a9
p2492
sV54bfbc6f4eff3
p2493
V54ff1802a3b07
p2494
sV54bfbc8aceb50
p2495
V54ff18097a85b
p2496
sV54bfbc6e65ac9
p2497
V54ff18026c503
p2498
sV54bfbc67d861b
p2499
V54ff18008fa16
p2500
sV54bfbc7de4711
p2501
V54ff1806a86bf
p2502
sV54bfbc5b7a643
p2503
V54ff17fd53de9
p2504
sV54bfbc7c4144b
p2505
V54ff180653c01
p2506
sV54bfbc79bd431
p2507
V54ff18057ab62
p2508
sV54bfbc90d187c
p2509
V54ff180b76c81
p2510
sV54bfbc99c7864
p2511
V54ff180e33aa9
p2512
sV54bfbc8188234
p2513
V54ff180779704
p2514
sV54bfbc84c0b30
p2515
V54ff180841b97
p2516
sV54bfbc751b63a
p2517
V54ff180422a01
p2518
sV54bfbc6b32690
p2519
V54ff1801c9270
p2520
sV54bfbc834533d
p2521
V54ff1808423e7
p2522
sV54bfbc90bf33b
p2523
V54ff180b9a600
p2524
sV54bfbc7f9bfbf
p2525
V54ff180754401
p2526
sV54bfbc5e1c959
p2527
V54ff17fe28c20
p2528
sV54bfbc6d04583
p2529
V54ff18021d25e
p2530
sV54bfbc952acb7
p2531
V54ff180cb0939
p2532
sV54bfbc7e7a692
p2533
V54ff1806a6fa2
p2534
sV54bfbc91e7187
p2535
V54ff180bc5244
p2536
sV54bfbc60c1387
p2537
V54ff17fee11b5
p2538
sV54bfbc9923a50
p2539
V54ff180e11aa7
p2540
sV54bfbc770bc51
p2541
V54ff180eda15f
p2542
sV54bfbc6c458ff
p2543
V54ff18011d0ee
p2544
sV54bfbc6bcf4a9
p2545
V54ff18014bc32
p2546
sV54bfbc5b66132
p2547
V54ff17fd54bc5
p2548
sV54bfbc6fd1e83
p2549
V54ff1802d127c
p2550
sV54bfbc6354cb7
p2551
V54ff17ff26bad
p2552
sV54bfbc78cad8a
p2553
V54ff18052ae10
p2554
sV54bfbc60b39f1
p2555
V54ff17feaf987
p2556
sV54bfbc84e4ae5
p2557
V54ff18088cab8
p2558
sV54bfbc5fee7ec
p2559
V54ff17fead058
p2560
sV54bfbc66bf003
p2561
V54ff18008ce7d
p2562
sV54bfbc7f927c2
p2563
V54ff180753f15
p2564
sV54bfbc67753dd
p2565
V54ff1800e6798
p2566
sV54bfbc713e802
p2567
V54ff180334218
p2568
sV54bfbc72ed749
p2569
V54ff18039ae2a
p2570
sV54bfbc812f82d
p2571
V54ff180727d84
p2572
sV54bfbc97115ca
p2573
V54ff180d653be
p2574
sV54bfbc6b3c97b
p2575
V54ff1801a3df8
p2576
sV54bfbc6257466
p2577
V54ff17ffd5526
p2578
sV54bfbc8c7db2a
p2579
V54ff1809d2978
p2580
sV54bfbc7e8a16b
p2581
V54ff18067aab5
p2582
sV54bfbc61b42a2
p2583
V54ff17ff711fe
p2584
sV54bfbc8581b6c
p2585
V54ff180842163
p2586
sV54bfbc5c59da7
p2587
V54ff17fdada99
p2588
sV54bfbc806597b
p2589
V54ff1807254fa
p2590
sV54bfbc707f630
p2591
V54ff180332a2f
p2592
sV54bfbc65cd331
p2593
V54ff18003dab1
p2594
sV54bfbc626f885
p2595
V54ff17ff4bd92
p2596
sV54bfbc66d4655
p2597
V54ff18008d93e
p2598
sV54bfbc812da7a
p2599
V54ff180727c7c
p2600
sV54bfbc8b94446
p2601
V54ff1809d4308
p2602
sV54bfbc93dbd6c
p2603
V54ff180c74e0b
p2604
sV54bfbc5b5a19e
p2605
V54ff17fd74318
p2606
sV54bfbc5d5e9ef
p2607
V54ff17fde7c76
p2608
sV54bfbc9021e4c
p2609
V54ff180b220e1
p2610
sV54bfbc69bacdb
p2611
V54ff1800e4bd2
p2612
sV54bfbc8664199
p2613
V54ff180a0b603
p2614
sV54bfbc6384e21
p2615
V54ff17ff27757
p2616
sV54bfbc9374988
p2617
V54ff180c43c51
p2618
sV54bfbc5d51f90
p2619
V54ff17fe27bb5
p2620
sV54bfbc8f6a155
p2621
V54ff180b20f33
p2622
sV54bfbc776e202
p2623
V54ff1804bf6f3
p2624
sV54bfbc9436359
p2625
V54ff180c753d3
p2626
sV54bfbc7c1746d
p2627
V54ff18061e6e3
p2628
sV54bfbc9654e2f
p2629
V54ff180d63a36
p2630
sV54bfbc8fcd5da
p2631
V54ff180b50164
p2632
sV54bfbc989a483
p2633
V54ff180e0fe54
p2634
sV54bfbc76362bf
p2635
V54ff1803ee87b
p2636
sV54bfbc82e5450
p2637
V54ff180818b8a
p2638
sV54bfbc8c9e570
p2639
V54ff1809d12cd
p2640
sV54bfbc91dd76d
p2641
V54ff180bc4bba
p2642
sV54bfbc6fcfb09
p2643
V54ff1802d5f20
p2644
sV54bfbc7072d6a
p2645
V54ff180300f6d
p2646
sV54bfbc7fc0ebc
p2647
V54ff180725ae2
p2648
sV54bfbc810705c
p2649
V54ff1807269b5
p2650
sV54bfbc6e1491c
p2651
V54ff180246614
p2652
sV54bfbc5d5c548
p2653
V54ff17fde7b80
p2654
sV54bfbc9109802
p2655
V54ff180b509e3
p2656
sV54bfbc87e7270
p2657
V54ff180a30c34
p2658
sV54bfbc652cae1
p2659
V54ff18003ce3f
p2660
sV54bfbc7f3fca0
p2661
V54ff1806ee9bf
p2662
sV54bfbc93408e6
p2663
V54ff180cae0ff
p2664
sV54bfbc7465b39
p2665
V54ff180eb1bfc
p2666
sV54bfbc769a6e0
p2667
V54ff18048e804
p2668
sV54bfbc6c88584
p2669
V54ff180eb05e3
p2670
sV54bfbc6d91167
p2671
V54ff1801eac5e
p2672
sV54bfbc5e20946
p2673
V54ff17fe28eb2
p2674
sV54bfbc6d3c89a
p2675
V54ff18026c026
p2676
sV54bfbc5fe665e
p2677
V54ff17feacae2
p2678
sV54bfbc5d1e66e
p2679
V54ff17fde6ead
p2680
sV54bfbc983e209
p2681
V54ff180f0ed3a
p2682
sV54bfbc63e0446
p2683
V54ff17ffd5b0d
p2684
sV54bfbc7add1d4
p2685
V54ff1805b1732
p2686
sV54bfbc89b0f4a
p2687
V54ff180a0b07e
p2688
sV54bfbc87525db
p2689
V54ff180a56948
p2690
sV54bfbc8298ef9
p2691
V54ff1807de039
p2692
sV54bfbc929d4ea
p2693
V54ff180c41a6b
p2694
sV54bfbc8fe1d08
p2695
V54ff180b75ec4
p2696
sV54bfbc78ba670
p2697
V54ff18052a8e3
p2698
sV54bfbc8046f76
p2699
V54ff180753493
p2700
sV54bfbc81907fc
p2701
V54ff18077a24f
p2702
sV54bfbc87c0d66
p2703
V54ff180a32a0f
p2704
sV54bfbc8dde802
p2705
V54ff180ac96ab
p2706
sV54bfbc9445164
p2707
V54ff180c75da7
p2708
sV54bfbc7279992
p2709
V54ff180364f64
p2710
sV54bfbc75e7168
p2711
V54ff1803ef733
p2712
sV54bfbc9447a94
p2713
V54ff180c75f65
p2714
sV54bfbc6195882
p2715
V54ff17ff28eb7
p2716
sV54bfbc74ecf63
p2717
V54ff180422878
p2718
sV54bfbc6dea5ea
p2719
V54ff18021b19c
p2720
sV54bfbc6f87291
p2721
V54ff1802a64ae
p2722
sV54bfbc936cfbb
p2723
V54ff180c73ab6
p2724
sV54bfbc7eafada
p2725
V54ff1806cd906
p2726
sV54bfbc755895f
p2727
V54ff180466790
p2728
sV54bfbc7f8b97c
p2729
V54ff1806eefb8
p2730
sV54bfbc5fb9e78
p2731
V54ff17fe8ccea
p2732
sV54bfbc6e540af
p2733
V54ff18026b51e
p2734
sV54bfbc75dc6e8
p2735
V54ff1803ef2c4
p2736
sV54bfbc838a8de
p2737
V54ff180843027
p2738
sV54bfbc6d89910
p2739
V54ff18021be3f
p2740
sV54bfbc84f39a1
p2741
V54ff18088c3e3
p2742
sV54bfbc6253636
p2743
V54ff17ffd539e
p2744
sV54bfbc916f03f
p2745
V54ff180bc2ef6
p2746
sV54bfbc7b8b324
p2747
V54ff180618e07
p2748
sV54bfbc7ea0e56
p2749
V54ff1806cf9fe
p2750
sV54bfbc82a9776
p2751
V54ff1807de848
p2752
sV54bfbc7f08ad7
p2753
V54ff1806ce4b6
p2754
sV54bfbc84c2739
p2755
V54ff1808420b1
p2756
sV54bfbc6139291
p2757
V54ff180015394
p2758
sV54bfbc6e63d8e
p2759
V54ff18026c413
p2760
sV54bfbc9784908
p2761
V54ff180da75db
p2762
sV54bfbc9228791
p2763
V54ff180c0da1b
p2764
sV54bfbc95e4a40
p2765
V54ff180d3e949
p2766
sV54bfbc7920979
p2767
V54ff18052a1e0
p2768
sV54bfbc7a02303
p2769
V54ff18057bf3c
p2770
sV54bfbc89b7b25
p2771
V54ff18091a54e
p2772
sV54bfbc607a8b7
p2773
V54ff17fedf720
p2774
sV54bfbc9181432
p2775
V54ff180bc3aa9
p2776
sV54bfbc7decf62
p2777
V54ff1806a8bcb
p2778
sV54bfbc6e5f8a1
p2779
V54ff180245d4c
p2780
sV54bfbc8b47d20
p2781
V54ff1809a1dbf
p2782
sV54bfbc842efdb
p2783
V54ff180843ad9
p2784
sV54bfbc5c9a587
p2785
V54ff17fdaf938
p2786
sV54bfbc5e65ed1
p2787
V54ff17fe5abf8
p2788
sV54bfbc7c4301a
p2789
V54ff180653ced
p2790
sV54bfbc9118274
p2791
V54ff180b763aa
p2792
sV54bfbc8f7c3eb
p2793
V54ff180b20e0c
p2794
sV54bfbc7b5f9fb
p2795
V54ff1805f195b
p2796
sV54bfbc9a410be
p2797
V54ff180e5ae4d
p2798
sV54bfbc6c2c0b5
p2799
V54ff18014c7af
p2800
sV54bfbc9616611
p2801
V54ff180d63533
p2802
sV54bfbc709eaae
p2803
V54ff180301728
p2804
sV54bfbc7ea4e0e
p2805
V54ff1806cd59a
p2806
sV54bfbc8d5b88a
p2807
V54ff180a57b3c
p2808
sV54bfbc9145a3b
p2809
V54ff180b9b896
p2810
sV54bfbc5ceeba1
p2811
V54ff17fde5b7d
p2812
sV54bfbc910b966
p2813
V54ff180b50afb
p2814
sV54bfbc922636b
p2815
V54ff180c0d94b
p2816
sV54bfbc94a3cca
p2817
V54ff180cafed9
p2818
sV54bfbc79c1391
p2819
V54ff18057ae3f
p2820
sV54bfbc8d445fa
p2821
V54ff180edc166
p2822
sV54bfbc62cf363
p2823
V54ff17ff7281d
p2824
sV54bfbc72c8534
p2825
V54ff1803c42bb
p2826
sV54bfbc5bbb8e9
p2827
V54ff17fd54a4c
p2828
sV54bfbc7b514ad
p2829
V54ff1805f0e93
p2830
sV54bfbc763f1e4
p2831
V54ff180eb1ea8
p2832
sV54bfbc63b7a75
p2833
V54ff17ff4c081
p2834
sV54bfbc78bc51f
p2835
V54ff18052a98c
p2836
sV54bfbc5c6aec6
p2837
V54ff17fdae32d
p2838
sV54bfbc7fa23d5
p2839
V54ff180753336
p2840
sV54bfbc82628a6
p2841
V54ff1807dc8cf
p2842
sV54bfbc64e3d10
p2843
V54ff180016072
p2844
sV54bfbc920aa20
p2845
V54ff180c0cfb8
p2846
sV54bfbc961c0ac
p2847
V54ff180d3f2ac
p2848
sV54bfbc6dc969b
p2849
V54ff180245370
p2850
sV54bfbc9921c73
p2851
V54ff180e119e0
p2852
sV54bfbc5f8c97e
p2853
V54ff17fe2a01a
p2854
sV54bfbc71a1f20
p2855
V54ff180363bc3
p2856
sV54bfbc79b8d6b
p2857
V54ff18057a851
p2858
sV54bfbc6cef421
p2859
V54ff18021ce4d
p2860
sV54bfbc7644f72
p2861
V54ff1803f0242
p2862
sV54bfbc8c6143f
p2863
V54ff18094f6ac
p2864
sV54bfbc88b38c8
p2865
V54ff18094fbcf
p2866
sV54bfbc6b10ea3
p2867
V54ff1801a4cba
p2868
sV54bfbc8a1814f
p2869
V54ff18091938c
p2870
sV54bfbc82ab67a
p2871
V54ff1807de900
p2872
sV54bfbc63bc9c9
p2873
V54ff180e836fa
p2874
sV54bfbc5f923d7
p2875
V54ff17fe2a200
p2876
sV54bfbc805df6b
p2877
V54ff180725f71
p2878
sV54bfbc5dd8999
p2879
V54ff180e5c1c8
p2880
sV54bfbc67bbd7e
p2881
V54ff1800e7254
p2882
sV54bfbc79bb492
p2883
V54ff18057a9fd
p2884
sV54bfbc8eaefa7
p2885
V54ff180b1ed2f
p2886
sV54bfbc833f7d2
p2887
V54ff180841ffa
p2888
sV54bfbc5de9e7d
p2889
V54ff180e5c6f3
p2890
sV54bfbc8652454
p2891
V54ff1808b154d
p2892
sV54bfbc82e72d4
p2893
V54ff180818c32
p2894
sV54bfbc8729df0
p2895
V54ff1808df13f
p2896
sV54bfbc7d5fe3e
p2897
V54ff18067ae55
p2898
sV54bfbc87955d4
p2899
V54ff18097977a
p2900
sV54bfbc5c6ed9c
p2901
V54ff17fdae1b0
p2902
sV54bfbc993b577
p2903
V54ff180e122d0
p2904
sV54bfbc96de1c4
p2905
V54ff180d3fead
p2906
sV54bfbc8a3c8a2
p2907
V54ff1809788b5
p2908
sV54bfbc80b0fc6
p2909
V54ff180753912
p2910
sV54bfbc6238d99
p2911
V54ff17ffa417e
p2912
sV54bfbc8e0d258
p2913
V54ff180af1163
p2914
sV54bfbc5e2eb80
p2915
V54ff17fe295b3
p2916
sV54bfbc8892785
p2917
V54ff18094e492
p2918
sV54bfbc6083581
p2919
V54ff17fee00a3
p2920
sV54bfbc6346518
p2921
V54ff17ffd4cc5
p2922
sV54bfbc8defd41
p2923
V54ff180ac9b32
p2924
sV54bfbc6ce4fc1
p2925
V54ff1801eb1a6
p2926
sV54bfbc8ff2f0f
p2927
V54ff180b7698f
p2928
sV54bfbc6926808
p2929
V54ff1800bb7e5
p2930
sV54bfbc783b7ee
p2931
V54ff180504e84
p2932
sV54bfbc8f60d49
p2933
V54ff180edc39c
p2934
sV54bfbc7fb4b12
p2935
V54ff1806efcaa
p2936
sV54bfbc80694d7
p2937
V54ff180725904
p2938
sV54bfbc8ad0afb
p2939
V54ff1808e07dd
p2940
sV54bfbc6b1f420
p2941
V54ff1801c8a90
p2942
sV54bfbc86581dd
p2943
V54ff1808de698
p2944
sV54bfbc6940943
p2945
V54ff1800bc81f
p2946
sV54bfbc82ebae5
p2947
V54ff180818db2
p2948
sV54bfbc99e0077
p2949
V54ff180e3456a
p2950
sV54bfbc72c289c
p2951
V54ff1803c4118
p2952
sV54bfbc844ce37
p2953
V54ff180865b75
p2954
sV54bfbc8d2b9c0
p2955
V54ff180a5700a
p2956
sV54bfbc67a2c99
p2957
V54ff1800e6b6e
p2958
sV54bfbc5d3ec0d
p2959
V54ff180e5cbdb
p2960
sV54bfbc5b5e70b
p2961
V54ff17fd74613
p2962
sV54bfbc60206bb
p2963
V54ff17feadb8b
p2964
sV54bfbc81259fc
p2965
V54ff180727857
p2966
sV54bfbc8448e4e
p2967
V54ff180865940
p2968
sV54bfbc7b93656
p2969
V54ff18061916c
p2970
sV54bfbc92b0681
p2971
V54ff180c4254c
p2972
sV54bfbc813d82e
p2973
V54ff180751f56
p2974
sV54bfbc6f78b9d
p2975
V54ff1802a4f7e
p2976
sV54bfbc78d0b41
p2977
V54ff18052aff1
p2978
sV54bfbc7b634e8
p2979
V54ff1805f1a7d
p2980
sV54bfbc6063589
p2981
V54ff17feaef65
p2982
sV54bfbc5e0d1ed
p2983
V54ff17fde8a34
p2984
sV54bfbc6cf107a
p2985
V54ff18021cf1c
p2986
sV54bfbc79b60ff
p2987
V54ff180545c69
p2988
sV54bfbc75a8730
p2989
V54ff18043ffac
p2990
sV54bfbc757f1e9
p2991
V54ff180440492
p2992
sV54bfbc5ddac71
p2993
V54ff17fde8464
p2994
sV54bfbc9726f8f
p2995
V54ff180d660d9
p2996
sV54bfbc6274fd2
p2997
V54ff17ff70efe
p2998
sV54bfbc838881c
p2999
V54ff180842f7d
p3000
sV54bfbc60298cc
p3001
V54ff17feae392
p3002
sV54bfbc6cb4da1
p3003
V54ff1801e9a81
p3004
sV54bfbc87ec8e1
p3005
V54ff180a0d551
p3006
sV54bfbc8b8896d
p3007
V54ff1809a200e
p3008
sV54bfbc900f725
p3009
V54ff180b9b632
p3010
sV54bfbc7a1949d
p3011
V54ff18057d07d
p3012
sV54bfbc6b3aa49
p3013
V54ff18017620c
p3014
sV54bfbc8bb9ede
p3015
V54ff180919a8a
p3016
sV54bfbc5f0bf79
p3017
V54ff17fe8b89a
p3018
sV54bfbc84d0823
p3019
V54ff1808646c9
p3020
sV54bfbc7546bd9
p3021
V54ff1804652f8
p3022
sV54bfbc7cf0006
p3023
V54ff180654cc8
p3024
sV54bfbc75afd40
p3025
V54ff180421de5
p3026
sV54bfbc6be98dc
p3027
V54ff18014c928
p3028
sV54bfbc96186eb
p3029
V54ff180d635fc
p3030
sV54bfbc8e52fea
p3031
V54ff180af1e1b
p3032
sV54bfbc6938d44
p3033
V54ff1800bc0fb
p3034
sV54bfbc5d15ce4
p3035
V54ff17fde699f
p3036
sV54bfbc8c680a2
p3037
V54ff18097a9e6
p3038
sV54bfbc616538f
p3039
V54ff17ff287e1
p3040
sV54bfbc7081417
p3041
V54ff180332cd0
p3042
sV54bfbc6544345
p3043
V54ff17ffa4eb0
p3044
sV54bfbc9901915
p3045
V54ff180e1151e
p3046
sV54bfbc6cd04db
p3047
V54ff18021c814
p3048
sV54bfbc87aaaea
p3049
V54ff180a56034
p3050
sV54bfbc63da200
p3051
V54ff17ffd57eb
p3052
sV54bfbc63352ba
p3053
V54ff180e83ffc
p3054
sV54bfbc7e74fdf
p3055
V54ff18067bdee
p3056
sV54bfbc6d4d6de
p3057
V54ff18026bd0f
p3058
sV54bfbc8eb0e41
p3059
V54ff180edc6f8
p3060
sV54bfbc878f101
p3061
V54ff18097932e
p3062
sV54bfbc9707a7d
p3063
V54ff180d16775
p3064
sV54bfbc6a72769
p3065
V54ff1801a3a13
p3066
sV54bfbc5d0600d
p3067
V54ff17fde5552
p3068
sV54bfbc7dce7a1
p3069
V54ff1806a7582
p3070
sV54bfbc88cedfa
p3071
V54ff1808de9e9
p3072
sV54bfbc7a90700
p3073
V54ff18057d6da
p3074
sV54bfbc601d323
p3075
V54ff17feada1e
p3076
sV54bfbc855f169
p3077
V54ff18088a874
p3078
sV54bfbc928d374
p3079
V54ff180c0ed3e
p3080
sV54bfbc7477906
p3081
V54ff180eb2441
p3082
sV54bfbc8cb199e
p3083
V54ff1809d0bc1
p3084
sV54bfbc7001fa3
p3085
V54ff1802d21d4
p3086
sV54bfbc652ebea
p3087
V54ff18003cf26
p3088
sV54bfbc5c8b8b1
p3089
V54ff17fd76c5e
p3090
sV54bfbc9158c0b
p3091
V54ff180bc20b9
p3092
sV54bfbc7d5dd89
p3093
V54ff1806a73b0
p3094
sV54bfbc855ac9c
p3095
V54ff18088ae38
p3096
sV54bfbc7463dfc
p3097
V54ff1803c5502
p3098
sV54bfbc6eac6f1
p3099
V54ff1802a2316
p3100
sV54bfbc970a3a0
p3101
V54ff180d3fcd8
p3102
sV54bfbc6a5a140
p3103
V54ff180176fc1
p3104
sV54bfbc8a94b0a
p3105
V54ff1808df839
p3106
sV54bfbc60c4491
p3107
V54ff17fedf0a7
p3108
sV54bfbc8f8bee0
p3109
V54ff180b51726
p3110
sV54bfbc6932496
p3111
V54ff1800bbd6c
p3112
sV54bfbc6400e1d
p3113
V54ff17ff27821
p3114
sV54bfbc8e45951
p3115
V54ff180af18b3
p3116
sV54bfbc977e253
p3117
V54ff180da5c8d
p3118
sV54bfbc6e03d4e
p3119
V54ff18021d403
p3120
sV54bfbc62251e7
p3121
V54ff180e84d85
p3122
sV54bfbc7a1729b
p3123
V54ff18057cf4e
p3124
sV54bfbc694af63
p3125
V54ff1800bcd68
p3126
sV54bfbc622338a
p3127
V54ff17ffa3904
p3128
sV54bfbc8932efa
p3129
V54ff1808de789
p3130
sV54bfbc635c170
p3131
V54ff17ff26e8c
p3132
sV54bfbc7822337
p3133
V54ff18050426f
p3134
sV54bfbc6c477e3
p3135
V54ff18011d25d
p3136
sV54bfbc932d73b
p3137
V54ff180c43b07
p3138
sV54bfbc7233958
p3139
V54ff1803990da
p3140
sV54bfbc7110a99
p3141
V54ff1803337c7
p3142
sV54bfbc674b89a
p3143
V54ff18011c754
p3144
sV54bfbc7d5bd70
p3145
V54ff1806a727d
p3146
sV54bfbc77e504d
p3147
V54ff1804bf9b4
p3148
sV54bfbc78de36a
p3149
V54ff18052b587
p3150
sV54bfbc6135495
p3151
V54ff180f0f42e
p3152
sV54bfbc935b1b1
p3153
V54ff180caef68
p3154
sV54bfbc5eea532
p3155
V54ff17fe5c671
p3156
sV54bfbc5de3923
p3157
V54ff17fde887e
p3158
sV54bfbc77ec70e
p3159
V54ff1804bf7f2
p3160
sV54bfbc69b4c5b
p3161
V54ff18017575d
p3162
sV54bfbc91d0ac7
p3163
V54ff180c0c1c0
p3164
sV54bfbc982f3ca
p3165
V54ff180dd15fc
p3166
sV54bfbc9912700
p3167
V54ff180f0f0d1
p3168
sV54bfbc9365316
p3169
V54ff180caf58a
p3170
sV54bfbc82b128f
p3171
V54ff1808184a2
p3172
sV54bfbc65c6f79
p3173
V54ff18003d513
p3174
sV54bfbc917964c
p3175
V54ff180bc3734
p3176
sV54bfbc7b58715
p3177
V54ff1805f1380
p3178
sV54bfbc9840069
p3179
V54ff180dd1e3f
p3180
sV54bfbc7ac4140
p3181
V54ff1805b2959
p3182
sV54bfbc7d0d296
p3183
V54ff1806a78ef
p3184
sV54bfbc8aa995d
p3185
V54ff1808dfee2
p3186
sV54bfbc97a97f7
p3187
V54ff180da4a88
p3188
sV54bfbc7cce60a
p3189
V54ff18065459f
p3190
sV54bfbc738f064
p3191
V54ff180421ef0
p3192
sV54bfbc5d4fe6c
p3193
V54ff17fe27a35
p3194
sV54bfbc92bd663
p3195
V54ff180c42bef
p3196
sV54bfbc7ef3928
p3197
V54ff1806cfae7
p3198
sV54bfbc8733839
p3199
V54ff180919892
p3200
sV54bfbc81cd2a8
p3201
V54ff1807db686
p3202
sV54bfbc6b25621
p3203
V54ff1801c8d3a
p3204
sV54bfbc9325f30
p3205
V54ff180c4380b
p3206
sV54bfbc6724f06
p3207
V54ff180064857
p3208
sV54bfbc6614e53
p3209
V54ff180062f08
p3210
sV54bfbc94409ae
p3211
V54ff180c75aec
p3212
sV54bfbc90bd337
p3213
V54ff180b521f0
p3214
sV54bfbc83dcab5
p3215
V54ff18081a621
p3216
sV54bfbc985fbc2
p3217
V54ff180dd2986
p3218
sV54bfbc7cc768d
p3219
V54ff180654775
p3220
sV54bfbc766d003
p3221
V54ff18048ec71
p3222
sV54bfbc6f8b294
p3223
V54ff1802a6567
p3224
sV54bfbc8a15ad9
p3225
V54ff1809a1240
p3226
sV54bfbc6e74473
p3227
V54ff18026cabf
p3228
sV54bfbc91f25fb
p3229
V54ff180c0c90c
p3230
sV54bfbc9a5878b
p3231
V54ff180e5bc1f
p3232
sV54bfbc6f9ac8d
p3233
V54ff1802d04f1
p3234
sV54bfbc62b1fda
p3235
V54ff180e83ed1
p3236
sV54bfbc6d87817
p3237
V54ff1801ea9e6
p3238
sV54bfbc97a76d4
p3239
V54ff180da74dc
p3240
sV54bfbc8f0a676
p3241
V54ff180b1f59b
p3242
sV54bfbc8135fe7
p3243
V54ff180728078
p3244
sV54bfbc5c93f2d
p3245
V54ff17fdad68a
p3246
sV54bfbc5b58368
p3247
V54ff17fd73fee
p3248
sV54bfbc5f2d805
p3249
V54ff17fe8c837
p3250
sV54bfbc5cad81a
p3251
V54ff17fdaeedb
p3252
sV54bfbc6b65027
p3253
V54ff1801ca78a
p3254
sV54bfbc709af31
p3255
V54ff180301509
p3256
sV54bfbc7a0db43
p3257
V54ff18057c558
p3258
sV54bfbc8c7bd6d
p3259
V54ff1809d2b12
p3260
sV54bfbc62c08a1
p3261
V54ff17ff728b7
p3262
sV54bfbc75d8c97
p3263
V54ff1803ef030
p3264
sV54bfbc6546470
p3265
V54ff17ff70b9d
p3266
sV54bfbc793f3b9
p3267
V54ff180542eef
p3268
sV54bfbc600c1f2
p3269
V54ff17feacbbf
p3270
sV54bfbc7be14dd
p3271
V54ff180619bc2
p3272
sV54bfbc7b4ab2d
p3273
V54ff180edafc9
p3274
sV54bfbc72b355b
p3275
V54ff18039a94b
p3276
sV54bfbc6ce908d
p3277
V54ff1801eb6a0
p3278
sV54bfbc7dd6f58
p3279
V54ff1806a7e9c
p3280
sV54bfbc61a4ee9
p3281
V54ff17ff4be80
p3282
sV54bfbc6bd13b4
p3283
V54ff18014c007
p3284
sV54bfbc893c787
p3285
V54ff180a323a9
p3286
sV54bfbc67e82a4
p3287
V54ff1800bd1f7
p3288
sV54bfbc72a8769
p3289
V54ff18039a521
p3290
sV54bfbc66c456f
p3291
V54ff18008d087
p3292
sV54bfbc763123e
p3293
V54ff1803eea50
p3294
sV54bfbc60b8a90
p3295
V54ff17fee05e1
p3296
sV54bfbc9342ee5
p3297
V54ff180cae204
p3298
sV54bfbc972b64d
p3299
V54ff180d66282
p3300
sV54bfbc8e4b7f7
p3301
V54ff180af1afa
p3302
sV54bfbc665e57d
p3303
V54ff18008e18a
p3304
sV54bfbc78822aa
p3305
V54ff180505b60
p3306
sV54bfbc63de026
p3307
V54ff17ffd59f3
p3308
sV54bfbc6a5bd23
p3309
V54ff180176d0b
p3310
sV54bfbc6df4217
p3311
V54ff18021d529
p3312
sV54bfbc78c031b
p3313
V54ff18052aac7
p3314
sV54bfbc748e40d
p3315
V54ff18046710e
p3316
sV54bfbc928f33c
p3317
V54ff180c0ec79
p3318
sV54bfbc5b6dfe2
p3319
V54ff17fd536ea
p3320
sV54bfbc756b0a2
p3321
V54ff1803f0998
p3322
sV54bfbc6dc77af
p3323
V54ff1802452d5
p3324
sV54bfbc75c7d90
p3325
V54ff180440ef8
p3326
sV54bfbc9a5135d
p3327
V54ff180e5b5fa
p3328
sV54bfbc831780f
p3329
V54ff180819ba4
p3330
sV54bfbc923ad82
p3331
V54ff180c0e00e
p3332
sV54bfbc9564025
p3333
V54ff180ce4f6e
p3334
sV54bfbc6d1902a
p3335
V54ff18026b956
p3336
sV54bfbc7165e06
p3337
V54ff180362a2c
p3338
sV54bfbc60599c1
p3339
V54ff17feae96a
p3340
sV54bfbc98aa708
p3341
V54ff180e1013b
p3342
sV54bfbc8f92204
p3343
V54ff180b2188e
p3344
sV54bfbc98ee0da
p3345
V54ff180e10acb
p3346
sV54bfbc771620b
p3347
V54ff1804bdbe3
p3348
sV54bfbc66b4910
p3349
V54ff18008c876
p3350
sV54bfbc8885cbd
p3351
V54ff18094d9b9
p3352
sV54bfbc730e4c1
p3353
V54ff1803c43e4
p3354
sV54bfbc857a91c
p3355
V54ff180865136
p3356
sV54bfbc981f5e1
p3357
V54ff180dd1091
p3358
sV54bfbc6cbc8d9
p3359
V54ff1801ea201
p3360
sV54bfbc5debd9f
p3361
V54ff17fde8bf6
p3362
sV54bfbc8575a65
p3363
V54ff180841f0f
p3364
sV54bfbc5ea3c9d
p3365
V54ff17fe5b730
p3366
sV54bfbc8f5d349
p3367
V54ff180af2e3a
p3368
sV54bfbc8328e88
p3369
V54ff18081a350
p3370
sV54bfbc91ebe88
p3371
V54ff180bc469a
p3372
sV54bfbc96d8233
p3373
V54ff180d16a39
p3374
sV54bfbc701307d
p3375
V54ff1802d5c1b
p3376
sV54bfbc6bbc554
p3377
V54ff18014b58a
p3378
sV54bfbc7606e95
p3379
V54ff180421d3f
p3380
sV54bfbc64e0497
p3381
V54ff180015fb4
p3382
sV54bfbc71e454e
p3383
V54ff180eb1518
p3384
sV54bfbc5e9c488
p3385
V54ff17fe5b50c
p3386
sV54bfbc8d3cdda
p3387
V54ff180a56b38
p3388
sV54bfbc66c888a
p3389
V54ff18008d346
p3390
sV54bfbc8b9845d
p3391
V54ff1809d3f5d
p3392
sV54bfbc81cb952
p3393
V54ff1807db5bd
p3394
sV54bfbc8dca921
p3395
V54ff180ac8e16
p3396
sV54bfbc8aa1b4e
p3397
V54ff18097a4d7
p3398
sV54bfbc5c0179b
p3399
V54ff17fd762e5
p3400
sV54bfbc615bc5f
p3401
V54ff17ff28417
p3402
sV54bfbc73291dd
p3403
V54ff1803c59eb
p3404
sV54bfbc92d928b
p3405
V54ff180c449d0
p3406
sV54bfbc739efc3
p3407
V54ff180eb223a
p3408
sV54bfbc63028df
p3409
V54ff18003c854
p3410
sV54bfbc922cda8
p3411
V54ff180c41681
p3412
sV54bfbc7e9cd51
p3413
V54ff1806cf902
p3414
sV54bfbc610d694
p3415
V54ff17fee1750
p3416
sV54bfbc6919457
p3417
V54ff1801c9515
p3418
sV54bfbc81db61b
p3419
V54ff1807dbc67
p3420
sV54bfbc708a745
p3421
V54ff18030208f
p3422
sV54bfbc7dc430a
p3423
V54ff1806555d0
p3424
sV54bfbc71de8f5
p3425
V54ff180364c00
p3426
sV54bfbc8fe5c78
p3427
V54ff180b765ff
p3428
sV54bfbc7f9852e
p3429
V54ff180754248
p3430
sV54bfbc7ec6071
p3431
V54ff1806cdd98
p3432
sV54bfbc5c04527
p3433
V54ff17fd76524
p3434
sV54bfbc6c4a0d2
p3435
V54ff18011d1c4
p3436
sV54bfbc7354f4e
p3437
V54ff180440ac8
p3438
sV54bfbc765f2a4
p3439
V54ff18048da1d
p3440
sV54bfbc5f8ae32
p3441
V54ff17fe29f78
p3442
sV54bfbc8b0477a
p3443
V54ff1809d41a8
p3444
sV54bfbc8110c00
p3445
V54ff180726e23
p3446
sV54bfbc87a46bd
p3447
V54ff180a5615b
p3448
sV54bfbc82a1151
p3449
V54ff1807de42d
p3450
sV54bfbc608a871
p3451
V54ff17fee13f3
p3452
sV54bfbc6e8b577
p3453
V54ff18026d758
p3454
sV54bfbc993d341
p3455
V54ff180e12393
p3456
sV54bfbc5fcb3c2
p3457
V54ff17fe8d08f
p3458
sV54bfbc95b81b7
p3459
V54ff180ce62dc
p3460
sV54bfbc65402ae
p3461
V54ff17ff70a63
p3462
sV54bfbc9003936
p3463
V54ff180b76aa8
p3464
sV54bfbc67ad5de
p3465
V54ff18011c2d0
p3466
sV54bfbc7eab791
p3467
V54ff1806cd772
p3468
sV54bfbc6cb0dda
p3469
V54ff1801e9808
p3470
sV54bfbc896be1f
p3471
V54ff180a0c2d8
p3472
sV54bfbc9169b2a
p3473
V54ff180bc3147
p3474
sV54bfbc7397543
p3475
V54ff1804407a6
p3476
sV54bfbc6cd65e4
p3477
V54ff18021c318
p3478
sV54bfbc81c4976
p3479
V54ff1807cd102
p3480
sV54bfbc783294e
p3481
V54ff180505160
p3482
sV54bfbc965ed44
p3483
V54ff180d640cf
p3484
sV54bfbc71b9833
p3485
V54ff180364425
p3486
sV54bfbc787d8e9
p3487
V54ff180505929
p3488
sV54bfbc641438a
p3489
V54ff17ff4b3b6
p3490
sV54bfbc89ee089
p3491
V54ff18094ef42
p3492
sV54bfbc5cc3654
p3493
V54ff17fdafb09
p3494
sV54bfbc97b8ffd
p3495
V54ff180da5024
p3496
sV54bfbc6ea85ca
p3497
V54ff180eb07a2
p3498
sV54bfbc9a433df
p3499
V54ff180e5afda
p3500
sV54bfbc61975ed
p3501
V54ff17ff29065
p3502
sV54bfbc79af6d3
p3503
V54ff180545956
p3504
sV54bfbc8e09467
p3505
V54ff180aca0be
p3506
sV54bfbc732b42f
p3507
V54ff1803c5b75
p3508
sV54bfbc8c93b2b
p3509
V54ff1809d2ca0
p3510
sV54bfbc5ee884b
p3511
V54ff180e5d39e
p3512
sV54bfbc95e969a
p3513
V54ff180d3eaf3
p3514
sV54bfbc7abbd86
p3515
V54ff1805b3519
p3516
sV54bfbc92c4cb3
p3517
V54ff180c42f54
p3518
sV54bfbc8eebe1b
p3519
V54ff180b1f081
p3520
sV54bfbc7ba44f1
p3521
V54ff180619640
p3522
sV54bfbc8abce8c
p3523
V54ff1808e04b3
p3524
sV54bfbc7886a56
p3525
V54ff180505d72
p3526
sV54bfbc6b5cf1d
p3527
V54ff1801e8db1
p3528
sV54bfbc722e2b7
p3529
V54ff1803656ea
p3530
sV54bfbc8b415d1
p3531
V54ff1809a1bc9
p3532
sV54bfbc97ca8f4
p3533
V54ff180da5af0
p3534
sV54bfbc6560791
p3535
V54ff17ffa47fa
p3536
sV54bfbc742a5d7
p3537
V54ff180466e4f
p3538
sV54bfbc981b0f6
p3539
V54ff180dd0e2b
p3540
sV54bfbc84e68b5
p3541
V54ff18088c8f5
p3542
sV54bfbc8a23f30
p3543
V54ff1809a12cf
p3544
sV54bfbc7df1479
p3545
V54ff1806a8d3c
p3546
sV54bfbc99de313
p3547
V54ff180e344a6
p3548
sV54bfbc63d0674
p3549
V54ff1800152a0
p3550
sV54bfbc62517a5
p3551
V54ff17ffd52cf
p3552
sV54bfbc9528947
p3553
V54ff180cb09f5
p3554
sV54bfbc663d8f0
p3555
V54ff180063b85
p3556
sV54bfbc760fd75
p3557
V54ff1803ee357
p3558
sV54bfbc8a13d35
p3559
V54ff1809a11ae
p3560
sV54bfbc92029a2
p3561
V54ff180c0cb42
p3562
sV54bfbc79ef3d4
p3563
V54ff180543bc7
p3564
sV54bfbc79df3f4
p3565
V54ff18057be0d
p3566
sV54bfbc6d7db06
p3567
V54ff1801ea740
p3568
sV54bfbc870fe06
p3569
V54ff1808b18de
p3570
sV54bfbc8daeea3
p3571
V54ff180ac7afd
p3572
sV54bfbc625f4b9
p3573
V54ff17ffd6321
p3574
sV54bfbc8a456a3
p3575
V54ff1808df3bb
p3576
sV54bfbc5f01a22
p3577
V54ff17fe8b415
p3578
sV54bfbc72a205a
p3579
V54ff180399b79
p3580
sV54bfbc752c879
p3581
V54ff180423007
p3582
sV54bfbc99375e8
p3583
V54ff180e12050
p3584
sV54bfbc73c5e97
p3585
V54ff180440218
p3586
sV54bfbc98efcb3
p3587
V54ff180e1127c
p3588
sV54bfbc6731934
p3589
V54ff18008f159
p3590
sV54bfbc7817be7
p3591
V54ff1804c0094
p3592
sV54bfbc751f535
p3593
V54ff18042274d
p3594
sV54bfbc754c91c
p3595
V54ff180465dfb
p3596
sV54bfbc65dbdcd
p3597
V54ff1800639ff
p3598
sV54bfbc960d2a8
p3599
V54ff180d6333a
p3600
sV54bfbc87509b7
p3601
V54ff1809539ac
p3602
sV54bfbc680a0cc
p3603
V54ff1800e4570
p3604
sV54bfbc6c35e7e
p3605
V54ff1800e5e58
p3606
sV54bfbc8463d73
p3607
V54ff180865eee
p3608
sV54bfbc87b53ca
p3609
V54ff1809a09fc
p3610
sV54bfbc8258e56
p3611
V54ff1807dc367
p3612
sV54bfbc6baa41f
p3613
V54ff18008f5df
p3614
sV54bfbc6193b76
p3615
V54ff17ff28de2
p3616
sV54bfbc6f4c874
p3617
V54ff1802a3917
p3618
sV54bfbc87b7497
p3619
V54ff180a32d8c
p3620
sV54bfbc9650a95
p3621
V54ff180d3e7c1
p3622
sV54bfbc7d0b388
p3623
V54ff1806a77b8
p3624
sV54bfbc695c5a0
p3625
V54ff1800bda71
p3626
sV54bfbc7a0922a
p3627
V54ff180edaeb9
p3628
sV54bfbc6363913
p3629
V54ff17ff2704c
p3630
sV54bfbc874856f
p3631
V54ff18094dabf
p3632
sV54bfbc8272983
p3633
V54ff1807dd046
p3634
sV54bfbc99dc23a
p3635
V54ff180e343b4
p3636
sV54bfbc8961dc1
p3637
V54ff180a0c579
p3638
sV54bfbc67133ad
p3639
V54ff18008de24
p3640
sV54bfbc6eb956a
p3641
V54ff1802a2c21
p3642
sV54bfbc65d7974
p3643
V54ff1800625eb
p3644
sV54bfbc90d7b34
p3645
V54ff180b99e8c
p3646
sV54bfbc7134091
p3647
V54ff180333f6b
p3648
sV54bfbc634a5b3
p3649
V54ff18003bbe5
p3650
sV54bfbc938ad7e
p3651
V54ff180c72ef7
p3652
sV54bfbc61d58b5
p3653
V54ff17ffa249f
p3654
sV54bfbc6389ecd
p3655
V54ff17ff49a9a
p3656
sV54bfbc8eaa91f
p3657
V54ff180b1eb93
p3658
sV54bfbc80310bd
p3659
V54ff1806ef855
p3660
sV54bfbc6a876ad
p3661
V54ff1801a4271
p3662
sV54bfbc8a4ec72
p3663
V54ff180978fa4
p3664
sV54bfbc92df7d1
p3665
V54ff180caf7be
p3666
sV54bfbc8b8cac2
p3667
V54ff180a0be36
p3668
sV54bfbc8a91fde
p3669
V54ff1808df714
p3670
sV54bfbc91edfdf
p3671
V54ff180c0c6ee
p3672
sV54bfbc61407cf
p3673
V54ff17ff26d5b
p3674
sV54bfbc7d02978
p3675
V54ff1806a7a1b
p3676
sV54bfbc6088acf
p3677
V54ff17fee0897
p3678
sV54bfbc60acc11
p3679
V54ff17feded78
p3680
sV54bfbc8fe3d6c
p3681
V54ff180b7656a
p3682
sV54bfbc8f12097
p3683
V54ff180af214e
p3684
sV54bfbc8960089
p3685
V54ff180a0c655
p3686
sV54bfbc766b09e
p3687
V54ff18048e72a
p3688
sV54bfbc9153277
p3689
V54ff180b9beda
p3690
sV54bfbc84d96e2
p3691
V54ff1808aec91
p3692
sV54bfbc7684c43
p3693
V54ff18048eee3
p3694
sV54bfbc6c865c9
p3695
V54ff1801e95c6
p3696
sV54bfbc90eff42
p3697
V54ff180b50376
p3698
sV54bfbc7a8605f
p3699
V54ff18057ce64
p3700
sV54bfbc63ab1c6
p3701
V54ff17ff49c53
p3702
sV54bfbc5f451d9
p3703
V54ff17fe8bbb4
p3704
sV54bfbc7928a49
p3705
V54ff18057ca36
p3706
sV54bfbc95eb34c
p3707
V54ff180d3eb8e
p3708
sV54bfbc88af832
p3709
V54ff18094f3eb
p3710
sV54bfbc6f5fb32
p3711
V54ff1802a3a27
p3712
sV54bfbc8564af3
p3713
V54ff18088ad72
p3714
sV54bfbc7dc02d1
p3715
V54ff180655154
p3716
sV54bfbc7a1db2c
p3717
V54ff18057d1f3
p3718
sV54bfbc978ff34
p3719
V54ff180da663c
p3720
sV54bfbc7231d65
p3721
V54ff180399029
p3722
sV54bfbc6bf009b
p3723
V54ff18014ccef
p3724
sV54bfbc84f1906
p3725
V54ff18088c4d2
p3726
sV54bfbc6f593f4
p3727
V54ff1802a4246
p3728
sV54bfbc81a3644
p3729
V54ff18077b092
p3730
sV54bfbc6567f82
p3731
V54ff17ffa4ae5
p3732
sV54bfbc77376fa
p3733
V54ff1804bf175
p3734
sV54bfbc8797665
p3735
V54ff180a56534
p3736
sV54bfbc7f257c6
p3737
V54ff1806cf235
p3738
sV54bfbc700cd43
p3739
V54ff1802d2138
p3740
sV54bfbc5c06a1e
p3741
V54ff17fd76630
p3742
sV54bfbc65d193c
p3743
V54ff18003dd38
p3744
sV54bfbc730a21d
p3745
V54ff1803c3fdd
p3746
sV54bfbc87ac696
p3747
V54ff1808b17c3
p3748
sV54bfbc67691aa
p3749
V54ff1800e60dc
p3750
sV54bfbc67c32d3
p3751
V54ff1800bcb10
p3752
sV54bfbc87182f5
p3753
V54ff18091b56c
p3754
sV54bfbc7f1e4b1
p3755
V54ff1806ceec1
p3756
sV54bfbc84ec1e3
p3757
V54ff18088c7e1
p3758
sV54bfbc691b9d7
p3759
V54ff1801cadba
p3760
sV54bfbc72b91c3
p3761
V54ff1803c4b2f
p3762
sV54bfbc7cda119
p3763
V54ff18067c681
p3764
sV54bfbc7aa82d7
p3765
V54ff18057daf5
p3766
sV54bfbc62cd32a
p3767
V54ff180e847f5
p3768
sV54bfbc7693076
p3769
V54ff18048e0a7
p3770
sV54bfbc8659e1a
p3771
V54ff180a0bd5b
p3772
sV54bfbc8d189bf
p3773
V54ff18091c0d1
p3774
sV54bfbc5b516da
p3775
V54ff17fd54f57
p3776
sV54bfbc8446de3
p3777
V54ff18086574c
p3778
sV54bfbc8f147a9
p3779
V54ff180af224e
p3780
sV54bfbc654c6ab
p3781
V54ff17ff70dc8
p3782
sV54bfbc70ae35f
p3783
V54ff180301f5f
p3784
sV54bfbc96a5f93
p3785
V54ff180d3fc49
p3786
sV54bfbc61c032b
p3787
V54ff17ff714f5
p3788
sV54bfbc6526ec5
p3789
V54ff18003c490
p3790
sV54bfbc84350bf
p3791
V54ff180864c6f
p3792
sV54bfbc8562fe5
p3793
V54ff18088a5d1
p3794
sV54bfbc7331817
p3795
V54ff1803f0601
p3796
sV54bfbc7de2650
p3797
V54ff1806a83ae
p3798
sV54bfbc8aa43c2
p3799
V54ff180979f69
p3800
sV54bfbc6812430
p3801
V54ff1800e5511
p3802
sV54bfbc8eedc20
p3803
V54ff180b1f1f5
p3804
sV54bfbc918b665
p3805
V54ff180bc4295
p3806
sV54bfbc938da4e
p3807
V54ff180c73072
p3808
sV54bfbc888f98e
p3809
V54ff18094e5c9
p3810
sV54bfbc5e8cc05
p3811
V54ff17fe5addf
p3812
sV54bfbc71bbaab
p3813
V54ff18036467a
p3814
sV54bfbc71c891a
p3815
V54ff180398b6f
p3816
sV54bfbc638c4da
p3817
V54ff17ff49bb7
p3818
sV54bfbc6b60f1b
p3819
V54ff1801e900e
p3820
sV54bfbc6f97127
p3821
V54ff1802d0325
p3822
sV54bfbc9a0ba1d
p3823
V54ff180e350c0
p3824
sV54bfbc73d479b
p3825
V54ff180441d66
p3826
sV54bfbc71408f0
p3827
V54ff1803342b1
p3828
sV54bfbc66b29ad
p3829
V54ff180064e0b
p3830
sV54bfbc9218064
p3831
V54ff180c0d43e
p3832
sV54bfbc701a34e
p3833
V54ff1802d17bc
p3834
sV54bfbc6e86ec2
p3835
V54ff18026d3c3
p3836
sV54bfbc67ba2fd
p3837
V54ff1800e71a5
p3838
sV54bfbc93cbba6
p3839
V54ff180c737bc
p3840
sV54bfbc6de059d
p3841
V54ff180245b00
p3842
sV54bfbc5cb016a
p3843
V54ff17fdaefda
p3844
sV54bfbc917756d
p3845
V54ff180bc3623
p3846
sV54bfbc7fd3dbc
p3847
V54ff1807529b3
p3848
sV54bfbc729c2cb
p3849
V54ff18039a192
p3850
sV54bfbc79153ee
p3851
V54ff18052ba4d
p3852
sV54bfbc6d97365
p3853
V54ff18021bf4c
p3854
sV54bfbc9a15f0c
p3855
V54ff180e5b7b0
p3856
sV54bfbc63b0f43
p3857
V54ff17ff4a253
p3858
sV54bfbc7114c52
p3859
V54ff180eb0d1e
p3860
sV54bfbc7806916
p3861
V54ff1804c0282
p3862
sV54bfbc91902ef
p3863
V54ff180bc4432
p3864
sV54bfbc71e8e6e
p3865
V54ff1803650c5
p3866
sV54bfbc676b0ac
p3867
V54ff1800e623e
p3868
sV54bfbc749ebb9
p3869
V54ff18042231d
p3870
sV54bfbc656b987
p3871
V54ff17ffa4c6b
p3872
sV54bfbc6f4a5bb
p3873
V54ff1802a37e8
p3874
sV54bfbc6c7c3c7
p3875
V54ff18014cc09
p3876
sV54bfbc8e624db
p3877
V54ff180af3256
p3878
sV54bfbc7897823
p3879
V54ff18052b79e
p3880
sV54bfbc965296b
p3881
V54ff180d63929
p3882
sV54bfbc76c5683
p3883
V54ff18048fd45
p3884
sV54bfbc9163b04
p3885
V54ff180bc2714
p3886
sV54bfbc8938a85
p3887
V54ff180a324a2
p3888
sV54bfbc8ab32fc
p3889
V54ff1808e01d6
p3890
sV54bfbc9013948
p3891
V54ff180b51a2a
p3892
sV54bfbc6a818b6
p3893
V54ff1801a4074
p3894
sV54bfbc6cd29d6
p3895
V54ff18021c5d1
p3896
sV54bfbc845f489
p3897
V54ff18086664e
p3898
sV54bfbc7d78fd8
p3899
V54ff18067b91b
p3900
sV54bfbc971c83a
p3901
V54ff180d659a0
p3902
sV54bfbc7fa6832
p3903
V54ff1806efa6c
p3904
sV54bfbc711827a
p3905
V54ff18033383f
p3906
sV54bfbc8a58c8d
p3907
V54ff18097983a
p3908
sV54bfbc8e642d3
p3909
V54ff180af33d8
p3910
sV54bfbc98ea6c0
p3911
V54ff180e10c41
p3912
sV54bfbc8199c74
p3913
V54ff18077ab93
p3914
sV54bfbc6498d89
p3915
V54ff180015726
p3916
sV54bfbc6261a53
p3917
V54ff180e857c7
p3918
sV54bfbc5ff0733
p3919
V54ff17fead186
p3920
sV54bfbc7f82e01
p3921
V54ff1806ee749
p3922
sV54bfbc96ef499
p3923
V54ff180d16c8b
p3924
sV54bfbc8a312df
p3925
V54ff1809a0b90
p3926
sV54bfbc7973eef
p3927
V54ff180544ac5
p3928
sV54bfbc8fd78c8
p3929
V54ff180b5158b
p3930
sV54bfbc7f963ef
p3931
V54ff18075415f
p3932
sV54bfbc83577bc
p3933
V54ff180842c7a
p3934
sV54bfbc76522fc
p3935
V54ff18048d436
p3936
sV54bfbc8c6d2ed
p3937
V54ff18097ac10
p3938
sV54bfbc716ac3c
p3939
V54ff180362c00
p3940
sV54bfbc6532bec
p3941
V54ff180e85e94
p3942
sV54bfbc7308020
p3943
V54ff1803c3f49
p3944
sV54bfbc9282895
p3945
V54ff180c0e92b
p3946
sV54bfbc8dcc471
p3947
V54ff180eb1866
p3948
sV54bfbc7deabef
p3949
V54ff1806a899e
p3950
sV54bfbc819b955
p3951
V54ff18077ac67
p3952
sV54bfbc8f6291c
p3953
V54ff180b1f7a8
p3954
sV54bfbc6406305
p3955
V54ff180e834cb
p3956
sV54bfbc5fdf3fe
p3957
V54ff17feac7a1
p3958
sV54bfbc81dda34
p3959
V54ff1807dbd9f
p3960
sV54bfbc97445a3
p3961
V54ff180da5ef6
p3962
sV54bfbc87e520c
p3963
V54ff180a30d02
p3964
sV54bfbc71e285a
p3965
V54ff180364e5b
p3966
sV54bfbc96a1cce
p3967
V54ff180d1768c
p3968
sV54bfbc93d8015
p3969
V54ff180c74be0
p3970
sV54bfbc68ada84
p3971
V54ff180177634
p3972
sV54bfbc5fd8e29
p3973
V54ff17fe8d665
p3974
sV54bfbc88339e6
p3975
V54ff180a0d1b7
p3976
sV54bfbc622d056
p3977
V54ff17ffa3c4b
p3978
sV54bfbc83e309c
p3979
V54ff1808437b7
p3980
sV54bfbc754a9eb
p3981
V54ff180465498
p3982
sV54bfbc7c09c29
p3983
V54ff18061e1d2
p3984
sV54bfbc730c377
p3985
V54ff1803c4080
p3986
sV54bfbc7f2d0e2
p3987
V54ff1806cf5ec
p3988
sV54bfbc90db925
p3989
V54ff180b9a068
p3990
sV54bfbc675a438
p3991
V54ff1800e739c
p3992
sV54bfbc5c66645
p3993
V54ff17fdae88d
p3994
sV54bfbc6e21b9d
p3995
V54ff180246dd8
p3996
sV54bfbc6947404
p3997
V54ff1800bcbd3
p3998
sV54bfbc854045f
p3999
V54ff18088b70e
p4000
sV54bfbc795f422
p4001
V54ff18054418c
p4002
sV54bfbc99bbed9
p4003
V54ff180e33306
p4004
sV54bfbc768e0d5
p4005
V54ff18048f432
p4006
sV54bfbc99eb7e5
p4007
V54ff180e346c6
p4008
sV54bfbc7830977
p4009
V54ff18050506b
p4010
sV54bfbc7e92183
p4011
V54ff1806a92ab
p4012
sV54bfbc7ddb992
p4013
V54ff1806a8181
p4014
sV54bfbc7f1c45b
p4015
V54ff1806cedc4
p4016
sV54bfbc6300cd7
p4017
V54ff18003c7bf
p4018
sV54bfbc971ad62
p4019
V54ff180d657bc
p4020
sV54bfbc914916b
p4021
V54ff180b9ba27
p4022
sV54bfbc9429b72
p4023
V54ff180c7a9d6
p4024
sV54bfbc803fff3
p4025
V54ff180752f5a
p4026
sV54bfbc5cc138c
p4027
V54ff17fdafa2a
p4028
sV54bfbc64dab41
p4029
V54ff180015cd2
p4030
sV54bfbc7f43c7b
p4031
V54ff1806eec02
p4032
sV54bfbc6936a75
p4033
V54ff1800bbeeb
p4034
sV54bfbc7e7c3ff
p4035
V54ff1806554c8
p4036
sV54bfbc70a87ef
p4037
V54ff180301b84
p4038
sV54bfbc6352d72
p4039
V54ff17ff26ae0
p4040
sV54bfbc936140d
p4041
V54ff180caf322
p4042
sV54bfbc93c79f5
p4043
V54ff180c732a1
p4044
sV54bfbc699d20a
p4045
V54ff1800bdc9f
p4046
sV54bfbc6fc4ef7
p4047
V54ff1802d091a
p4048
sV54bfbc69eaf00
p4049
V54ff1800e4f28
p4050
sV54bfbc6c661de
p4051
V54ff18011de4b
p4052
sV54bfbc70001dd
p4053
V54ff1802d1f85
p4054
sV54bfbc97c05db
p4055
V54ff180da76b1
p4056
sV54bfbc9449d47
p4057
V54ff180cada05
p4058
sV54bfbc9172e08
p4059
V54ff180bc327c
p4060
sV54bfbc67110db
p4061
V54ff18008dd1a
p4062
sV54bfbc78397ea
p4063
V54ff180504d7c
p4064
sV54bfbc6bae22b
p4065
V54ff180176087
p4066
sV54bfbc6e903d5
p4067
V54ff18026d8e4
p4068
sV54bfbc6f3e7ea
p4069
V54ff1802a336e
p4070
sV54bfbc757597f
p4071
V54ff1804672fe
p4072
sV54bfbc7425e63
p4073
V54ff180442be8
p4074
sV54bfbc68ba77a
p4075
V54ff1801a2d97
p4076
sV54bfbc95dee25
p4077
V54ff180d3e646
p4078
sV54bfbc80f02ca
p4079
V54ff180726570
p4080
sV54bfbc8fdfbaa
p4081
V54ff180b75e0f
p4082
sV54bfbc92e62db
p4083
V54ff180c73ff9
p4084
sV54bfbc653820f
p4085
V54ff17ffd663f
p4086
sV54bfbc6090a69
p4087
V54ff17fee10d5
p4088
sV54bfbc60783ae
p4089
V54ff17fedf4eb
p4090
sV54bfbc85ddabf
p4091
V54ff180edbae5
p4092
sV54bfbc6367eeb
p4093
V54ff17ff2722e
p4094
sV54bfbc8dc613a
p4095
V54ff180ac8d22
p4096
sV54bfbc8ea4bba
p4097
V54ff180af361c
p4098
sV54bfbc8b45d62
p4099
V54ff1809a1d20
p4100
sV54bfbc8f96777
p4101
V54ff180b21dc4
p4102
sV54bfbc68d214a
p4103
V54ff1801cac19
p4104
sV54bfbc7c0793f
p4105
V54ff18061a722
p4106
sV54bfbc8a09b4b
p4107
V54ff1809a140e
p4108
sV54bfbc8a54cc3
p4109
V54ff180a0aece
p4110
sV54bfbc611cbdf
p4111
V54ff17fee243c
p4112
sV54bfbc6ff241a
p4113
V54ff1802d1d93
p4114
sV54bfbc727b7fb
p4115
V54ff18036502d
p4116
sV54bfbc5cc594c
p4117
V54ff17fdafc12
p4118
sV54bfbc8bc6297
p4119
V54ff180953edb
p4120
sV54bfbc5e5d5d6
p4121
V54ff17fe29915
p4122
sV54bfbc8b82985
p4123
V54ff1809a1eec
p4124
sV54bfbc8bc147f
p4125
V54ff18094f5dc
p4126
sV54bfbc82ede39
p4127
V54ff180818e61
p4128
sV54bfbc62cb5f1
p4129
V54ff180e84687
p4130
sV54bfbc5eef07f
p4131
V54ff17fe8b12c
p4132
sV54bfbc62bc17b
p4133
V54ff17ff7251f
p4134
sV54bfbc8281d0e
p4135
V54ff1807dd78f
p4136
sV54bfbc6feea55
p4137
V54ff1802d1bd1
p4138
sV54bfbc89ab347
p4139
V54ff180a0bfc4
p4140
sV54bfbc6a8a0b7
p4141
V54ff1801a4334
p4142
sV54bfbc63c83f9
p4143
V54ff17ff70e60
p4144
sV54bfbc7492186
p4145
V54ff1803c5c16
p4146
sV54bfbc5ea73c2
p4147
V54ff17fe5b8a2
p4148
sV54bfbc9430d02
p4149
V54ff180c7abb8
p4150
sV54bfbc6e929bc
p4151
V54ff18026d9fc
p4152
sV54bfbc655251e
p4153
V54ff17ffd4260
p4154
sV54bfbc8a115cf
p4155
V54ff1809a1109
p4156
sV54bfbc68b5150
p4157
V54ff1801779fd
p4158
sV54bfbc7675b49
p4159
V54ff18048dea2
p4160
sV54bfbc8c5c2b2
p4161
V54ff18091bc05
p4162
sV54bfbc71dc9c6
p4163
V54ff180364b36
p4164
sV54bfbc858ab14
p4165
V54ff18088ab85
p4166
sV54bfbc654aa07
p4167
V54ff17ff70d3e
p4168
sV54bfbc8cbc7db
p4169
V54ff18094d678
p4170
sV54bfbc8ac217b
p4171
V54ff1808e03e3
p4172
sV54bfbc729a4ae
p4173
V54ff18039a108
p4174
sV54bfbc7c4507b
p4175
V54ff180653df6
p4176
sV54bfbc5b4d428
p4177
V54ff17fd54e52
p4178
sV54bfbc90b74ac
p4179
V54ff180b9b30a
p4180
sV54bfbc85372d0
p4181
V54ff18088bb15
p4182
sV54bfbc9073016
p4183
V54ff180b51e09
p4184
sV54bfbc787fcec
p4185
V54ff180505a2f
p4186
sV54bfbc7028c9a
p4187
V54ff18030006e
p4188
sV54bfbc887c32e
p4189
V54ff180a0cdf2
p4190
sV54bfbc755b5a3
p4191
V54ff18046693f
p4192
sV54bfbc6503300
p4193
V54ff18003bd89
p4194
sV54bfbc6e168f6
p4195
V54ff18024691e
p4196
sV54bfbc9846193
p4197
V54ff180dd206c
p4198
sV54bfbc8dc2589
p4199
V54ff180ac8ac9
p4200
sV54bfbc85087d8
p4201
V54ff18088bf13
p4202
sV54bfbc813137f
p4203
V54ff180727e4c
p4204
sV54bfbc7abeac7
p4205
V54ff1805b33cf
p4206
sV54bfbc63cc660
p4207
V54ff17ff7197a
p4208
sV54bfbc62e1f64
p4209
V54ff18003c083
p4210
sV54bfbc85350e7
p4211
V54ff18088bc0d
p4212
sV54bfbc8fcb560
p4213
V54ff180b5004e
p4214
sV54bfbc7125c28
p4215
V54ff180333a62
p4216
sV54bfbc8a2d050
p4217
V54ff1809785a4
p4218
sV54bfbc6e0b723
p4219
V54ff18021b697
p4220
sV54bfbc970c1b4
p4221
V54ff180d648ee
p4222
sV54bfbc7d13321
p4223
V54ff1806a8611
p4224
sV54bfbc6e94e8e
p4225
V54ff18026db18
p4226
sV54bfbc7632c70
p4227
V54ff1803c5e62
p4228
sV54bfbc79c3995
p4229
V54ff18057afaa
p4230
sV54bfbc8d5108e
p4231
V54ff180a576ce
p4232
sV54bfbc81af86e
p4233
V54ff18077b435
p4234
sV54bfbc6f7a7aa
p4235
V54ff1802a6683
p4236
sV54bfbc9a4548f
p4237
V54ff180e5b0c0
p4238
sV54bfbc664e327
p4239
V54ff18003ddbe
p4240
sV54bfbc5c5c49d
p4241
V54ff17fdae40f
p4242
sV54bfbc7707e97
p4243
V54ff1804be707
p4244
sV54bfbc62d707a
p4245
V54ff18001553b
p4246
sV54bfbc5b64258
p4247
V54ff17fd53f0e
p4248
sV54bfbc9224088
p4249
V54ff180c0d7a8
p4250
sV54bfbc6a75906
p4251
V54ff1801a3b23
p4252
sV54bfbc727d275
p4253
V54ff180eb1409
p4254
sV54bfbc6761f1c
p4255
V54ff1800e5c16
p4256
sV54bfbc7fe7989
p4257
V54ff1806ef616
p4258
sV54bfbc88c87a1
p4259
V54ff180a55fc7
p4260
sV54bfbc72cc40e
p4261
V54ff18039ad38
p4262
sV54bfbc7e678cc
p4263
V54ff1806a8fe1
p4264
sV54bfbc8e0b36c
p4265
V54ff180aca188
p4266
sV54bfbc8d65dc5
p4267
V54ff180a85303
p4268
sV54bfbc5b76869
p4269
V54ff17fd53b68
p4270
sV54bfbc8aadb91
p4271
V54ff1808e00d8
p4272
sV54bfbc6a5fdf3
p4273
V54ff180177135
p4274
sV54bfbc68c41b5
p4275
V54ff1801a2e85
p4276
sV54bfbc8942345
p4277
V54ff180a32012
p4278
sV54bfbc80bc2b9
p4279
V54ff180725815
p4280
sV54bfbc6ddc63e
p4281
V54ff1802459a7
p4282
sV54bfbc693ab56
p4283
V54ff1800bc1dc
p4284
sV54bfbc766185d
p4285
V54ff18048dad2
p4286
sV54bfbc613cd60
p4287
V54ff180e83167
p4288
sV54bfbc63af1de
p4289
V54ff17ff4ad74
p4290
sV54bfbc811fc2f
p4291
V54ff1807275ad
p4292
sV54bfbc915b3e8
p4293
V54ff180bc22bb
p4294
sV54bfbc7f8de26
p4295
V54ff180753a7d
p4296
sV54bfbc992f914
p4297
V54ff180e12190
p4298
sV54bfbc622ee7d
p4299
V54ff17ffa3d5f
p4300
sV54bfbc95840db
p4301
V54ff180d1538e
p4302
sV54bfbc85018bb
p4303
V54ff18088c2c0
p4304
sV54bfbc7eb21e5
p4305
V54ff1806cd9e4
p4306
sV54bfbc71279ee
p4307
V54ff18033394a
p4308
sV54bfbc74f058e
p4309
V54ff1804227e6
p4310
sV54bfbc82ad421
p4311
V54ff1807de9f8
p4312
sV54bfbc8678b11
p4313
V54ff1808b24c1
p4314
sV54bfbc96e67a7
p4315
V54ff180d15faf
p4316
sV54bfbc92919a1
p4317
V54ff180c0edf0
p4318
sV54bfbc6441544
p4319
V54ff17ff70ff2
p4320
sV54bfbc8fd1482
p4321
V54ff180b512e7
p4322
sV54bfbc6b9b1c6
p4323
V54ff1801c9ad1
p4324
sV54bfbc7119fc0
p4325
V54ff180333afb
p4326
sV54bfbc84c62e2
p4327
V54ff180843596
p4328
sV54bfbc8396d2c
p4329
V54ff1808434ef
p4330
sV54bfbc7352ab9
p4331
V54ff180440bb4
p4332
sV54bfbc834c9cd
p4333
V54ff180842724
p4334
sV54bfbc731c79a
p4335
V54ff1803c4d1a
p4336
sV54bfbc78b68bc
p4337
V54ff18052a723
p4338
sV54bfbc6ce31d5
p4339
V54ff1801eafe7
p4340
sV54bfbc673d505
p4341
V54ff18008f3d4
p4342
sV54bfbc97a4e25
p4343
V54ff180da73ec
p4344
sV54bfbc8ae5b6c
p4345
V54ff1809a14ed
p4346
sV54bfbc817b0d3
p4347
V54ff180779d46
p4348
sV54bfbc6dc5bee
p4349
V54ff18021e6e3
p4350
sV54bfbc95b32fb
p4351
V54ff180d15858
p4352
sV54bfbc8fd3424
p4353
V54ff180b513be
p4354
sV54bfbc728f05d
p4355
V54ff180399d69
p4356
sV54bfbc961eb75
p4357
V54ff180d636d4
p4358
sV54bfbc92088bc
p4359
V54ff180c0cedc
p4360
sV54bfbc61ca3f5
p4361
V54ff180e83c55
p4362
sV54bfbc76d374e
p4363
V54ff180490296
p4364
sV54bfbc97be4de
p4365
V54ff180da5299
p4366
sV54bfbc6c84382
p4367
V54ff180eb04f5
p4368
sV54bfbc6f5b0df
p4369
V54ff1802a4305
p4370
sV54bfbc8baf75b
p4371
V54ff1809d3393
p4372
sV54bfbc7f52ff7
p4373
V54ff1806ee62d
p4374
sV54bfbc8d6a9ed
p4375
V54ff180a854bf
p4376
sV54bfbc5b4f865
p4377
V54ff17fd54ed8
p4378
sV54bfbc6d534ba
p4379
V54ff1802461e3
p4380
sV54bfbc95f1058
p4381
V54ff180d4005b
p4382
sV54bfbc8d4f592
p4383
V54ff180a57647
p4384
sV54bfbc6a79871
p4385
V54ff1801a3ca4
p4386
sV54bfbc6fd5934
p4387
V54ff1802d5dae
p4388
sV54bfbc6bbe5b8
p4389
V54ff18014b608
p4390
sV54bfbc83159f0
p4391
V54ff18081a0b1
p4392
sV54bfbc7b0c9c6
p4393
V54ff1805b1bd4
p4394
sV54bfbc7827fac
p4395
V54ff1805044b1
p4396
sV54bfbc763b93a
p4397
V54ff180eb1e0c
p4398
sV54bfbc5c0ded9
p4399
V54ff17fd7697d
p4400
sV54bfbc7eb597b
p4401
V54ff1806cdb34
p4402
sV54bfbc6fe12a1
p4403
V54ff1802d10ea
p4404
sV54bfbc9372a43
p4405
V54ff180c73d2f
p4406
sV54bfbc6ced604
p4407
V54ff18021bd74
p4408
sV54bfbc67a52fb
p4409
V54ff1800e6c6c
p4410
sV54bfbc6123e8a
p4411
V54ff17fee2014
p4412
sV54bfbc6bc9cbb
p4413
V54ff18014b986
p4414
sV54bfbc7121e25
p4415
V54ff1803338c5
p4416
sV54bfbc7158284
p4417
V54ff1803346bb
p4418
sV54bfbc62d3237
p4419
V54ff18001457c
p4420
sV54bfbc8dd46b9
p4421
V54ff180ac9282
p4422
sV54bfbc7964fb2
p4423
V54ff18054429a
p4424
sV54bfbc77333c0
p4425
V54ff18048f752
p4426
sV54bfbc95c7c1e
p4427
V54ff180d17ef9
p4428
sV54bfbc6f53168
p4429
V54ff1802a3e37
p4430
sV54bfbc5d0c0ab
p4431
V54ff17fde6145
p4432
sV54bfbc8034d8e
p4433
V54ff1806ef963
p4434
sV54bfbc96b12cf
p4435
V54ff180d1688c
p4436
sV54bfbc6e5ae62
p4437
V54ff18024726d
p4438
sV54bfbc70aa80a
p4439
V54ff180301c4b
p4440
sV54bfbc88a2b13
p4441
V54ff18094ecc3
p4442
sV54bfbc648ad2c
p4443
V54ff180014b45
p4444
sV54bfbc626b8c6
p4445
V54ff17ffd64c9
p4446
sV54bfbc6d3e609
p4447
V54ff1801eaad5
p4448
sV54bfbc5f8e9ea
p4449
V54ff17fe2a0bf
p4450
sV54bfbc9113e6d
p4451
V54ff180b75f98
p4452
sV54bfbc81bb5ee
p4453
V54ff18079e533
p4454
sV54bfbc5d28785
p4455
V54ff17fde6a5a
p4456
sV54bfbc763d57f
p4457
V54ff1803efe3c
p4458
sV54bfbc9853e1d
p4459
V54ff180dd2564
p4460
sV54bfbc910fbbb
p4461
V54ff180b51c68
p4462
sV54bfbc953a518
p4463
V54ff180f0e723
p4464
sV54bfbc93dde52
p4465
V54ff180c74f72
p4466
sV54bfbc8e4d548
p4467
V54ff180af1bb0
p4468
sV54bfbc866e204
p4469
V54ff180a30fcb
p4470
sV54bfbc8d2985d
p4471
V54ff180a56f78
p4472
sV54bfbc602d019
p4473
V54ff17feae565
p4474
sV54bfbc6d8599d
p4475
V54ff1801ead22
p4476
sV54bfbc7481247
p4477
V54ff18044294a
p4478
sV54bfbc6cb8b69
p4479
V54ff1801e9995
p4480
sV54bfbc941fde7
p4481
V54ff180c7510a
p4482
sV54bfbc964c520
p4483
V54ff180d3f358
p4484
sV54bfbc675c2a1
p4485
V54ff180eaffc7
p4486
sV54bfbc81845ad
p4487
V54ff1807798ae
p4488
sV54bfbc6957ac6
p4489
V54ff1800bd861
p4490
sV54bfbc8f534d4
p4491
V54ff180af2b04
p4492
sV54bfbc84d2a38
p4493
V54ff18086520c
p4494
sV54bfbc87cae96
p4495
V54ff180a3277f
p4496
sV54bfbc5b39713
p4497
V54ff17fd547cd
p4498
sV54bfbc5b55541
p4499
V54ff17fd73e72
p4500
sV54bfbc69e6ed7
p4501
V54ff1800e4ea6
p4502
sV54bfbc6a778a5
p4503
V54ff1801a3bf8
p4504
sV54bfbc6bb2d0d
p4505
V54ff18014b262
p4506
sV54bfbc69b8f3d
p4507
V54ff18017591f
p4508
sV54bfbc60bc653
p4509
V54ff17fee0c57
p4510
sV54bfbc73cec76
p4511
V54ff180441bb1
p4512
sV54bfbc760df8f
p4513
V54ff1803c601e
p4514
sV54bfbc8d4ae73
p4515
V54ff180a57514
p4516
sV54bfbc6009efa
p4517
V54ff17feac884
p4518
sV54bfbc9a4f723
p4519
V54ff180e5b6e0
p4520
sV54bfbc8c873d3
p4521
V54ff1809d2418
p4522
sV54bfbc854aa11
p4523
V54ff18088b361
p4524
sV54bfbc76edfb2
p4525
V54ff18048fed0
p4526
sV54bfbc63d85f5
p4527
V54ff17ffd56fc
p4528
sV54bfbc994594f
p4529
V54ff180e323ac
p4530
sV54bfbc8db8924
p4531
V54ff180ac8258
p4532
sV54bfbc7df33b6
p4533
V54ff1806a8e25
p4534
sV54bfbc8dbe838
p4535
V54ff180ac8769
p4536
sV54bfbc6e124f3
p4537
V54ff180246573
p4538
sV54bfbc9a01b1e
p4539
V54ff180e34aa5
p4540
sV54bfbc6cc7d08
p4541
V54ff1801e9f77
p4542
sV54bfbc747f46f
p4543
V54ff180eb252c
p4544
sV54bfbc88be1f4
p4545
V54ff180a0b3bf
p4546
sV54bfbc708fd49
p4547
V54ff1803022f3
p4548
sV54bfbc5c156b4
p4549
V54ff17fd76d55
p4550
sV54bfbc9a4d58f
p4551
V54ff180e5b4dc
p4552
sV54bfbc6d9aa3c
p4553
V54ff18021c0ff
p4554
sV54bfbc7b8197b
p4555
V54ff180618b56
p4556
sV54bfbc8c8ce55
p4557
V54ff1809a2214
p4558
sV54bfbc8d61bf6
p4559
V54ff180a57ce0
p4560
sV54bfbc7f9a4d1
p4561
V54ff180754336
p4562
sV54bfbc94549f9
p4563
V54ff180cb043a
p4564
sV54bfbc90e7779
p4565
V54ff180b9ad54
p4566
sV54bfbc6f84fa4
p4567
V54ff1802a6348
p4568
sV54bfbc7663e77
p4569
V54ff18048d7af
p4570
sV54bfbc65b6a9c
p4571
V54ff18003d1aa
p4572
sV54bfbc8326be6
p4573
V54ff18081a280
p4574
sV54bfbc5ea044f
p4575
V54ff17fe5b68d
p4576
sV54bfbc96a7fbb
p4577
V54ff180d15ad1
p4578
sV54bfbc7f34ee6
p4579
V54ff1806ede31
p4580
sV54bfbc7a9eb3b
p4581
V54ff1805b3466
p4582
sV54bfbc708350a
p4583
V54ff180332d70
p4584
sV54bfbc7fb2f1c
p4585
V54ff1806efc3e
p4586
sV54bfbc970eb09
p4587
V54ff180d651c0
p4588
sV54bfbc5dd23b2
p4589
V54ff180e5bf4d
p4590
sV54bfbc917ef8c
p4591
V54ff180bc39a4
p4592
sV54bfbc6feaf82
p4593
V54ff1802d1960
p4594
sV54bfbc5f21c48
p4595
V54ff17fe5c3f1
p4596
sV54bfbc862cea7
p4597
V54ff1808b0c5b
p4598
sV54bfbc5ec02af
p4599
V54ff17fe8c280
p4600
sV54bfbc69148d3
p4601
V54ff1801ca36f
p4602
sV54bfbc87d6bb7
p4603
V54ff180a31c73
p4604
sV54bfbc5fc94bb
p4605
V54ff17fe8d4b0
p4606
sV54bfbc8c59571
p4607
V54ff18091baf3
p4608
sV54bfbc7646f3c
p4609
V54ff1803f0a68
p4610
sV54bfbc8311e0b
p4611
V54ff180819916
p4612
sV54bfbc6bdffb6
p4613
V54ff18014c4da
p4614
sV54bfbc8f069e1
p4615
V54ff180b1f4ba
p4616
sV54bfbc75dfeae
p4617
V54ff1803ef369
p4618
sV54bfbc62f2d79
p4619
V54ff18003c731
p4620
sV54bfbc73a3eec
p4621
V54ff18044111d
p4622
sV54bfbc7f4650f
p4623
V54ff1806eecca
p4624
sV54bfbc6126371
p4625
V54ff17fee20df
p4626
sV54bfbc66b0b78
p4627
V54ff180064d32
p4628
sV54bfbc8fddb83
p4629
V54ff180b75d52
p4630
sV54bfbc888a7f3
p4631
V54ff18094e1a1
p4632
sV54bfbc8dd0789
p4633
V54ff180ac9082
p4634
sV54bfbc7959407
p4635
V54ff1805438e7
p4636
sV54bfbc9551c50
p4637
V54ff180ce4758
p4638
sV54bfbc5eca504
p4639
V54ff17fe8cba9
p4640
sV54bfbc67b6c8c
p4641
V54ff18014be69
p4642
sV54bfbc660cc0e
p4643
V54ff18006278b
p4644
sV54bfbc693cc60
p4645
V54ff1800bc52e
p4646
sV54bfbc7093995
p4647
V54ff180302499
p4648
sV54bfbc69aaf60
p4649
V54ff1801752aa
p4650
sV54bfbc7709a81
p4651
V54ff1804be7b3
p4652
sV54bfbc83063c2
p4653
V54ff1808194c4
p4654
sV54bfbc5e1e9cb
p4655
V54ff17fe28d4f
p4656
sV54bfbc61995d0
p4657
V54ff17ff29158
p4658
sV54bfbc806d5bd
p4659
V54ff18075254b
p4660
sV54bfbc79c5835
p4661
V54ff18057b0c6
p4662
sV54bfbc81c0216
p4663
V54ff18079e5ee
p4664
sV54bfbc98acc03
p4665
V54ff180e1041e
p4666
sV54bfbc64efb74
p4667
V54ff18001659e
p4668
sV54bfbc6265e44
p4669
V54ff180e859f4
p4670
sV54bfbc8aa732e
p4671
V54ff1808dfda4
p4672
sV54bfbc99339d9
p4673
V54ff180e32168
p4674
sV54bfbc81aa770
p4675
V54ff180779df5
p4676
sV54bfbc6c34050
p4677
V54ff18014cb74
p4678
sV54bfbc7cbc9a3
p4679
V54ff180653697
p4680
sV54bfbc8a9d881
p4681
V54ff1808dfa76
p4682
sV54bfbc6ce116b
p4683
V54ff18021c70d
p4684
sV54bfbc5bd61b8
p4685
V54ff17fd7542f
p4686
sV54bfbc91476ca
p4687
V54ff180b9b95e
p4688
sV54bfbc8121811
p4689
V54ff180727699
p4690
sV54bfbc871fac4
p4691
V54ff1808de25d
p4692
sV54bfbc6a629d3
p4693
V54ff1801a33de
p4694
sV54bfbc6a0ab43
p4695
V54ff1801e8f37
p4696
sV54bfbc5b60498
p4697
V54ff17fd746d7
p4698
sV54bfbc75cf8f5
p4699
V54ff180464e3c
p4700
sV54bfbc878b611
p4701
V54ff180a56806
p4702
sV54bfbc88c4315
p4703
V54ff180a5646b
p4704
sV54bfbc7d21df4
p4705
V54ff18067a9f2
p4706
sV54bfbc943e5ab
p4707
V54ff180c75983
p4708
sV54bfbc79ebb50
p4709
V54ff180543ea4
p4710
sV54bfbc8641542
p4711
V54ff18091a171
p4712
sV54bfbc7696095
p4713
V54ff18048df8b
p4714
sV54bfbc9165d44
p4715
V54ff180bc2957
p4716
sV54bfbc61449ab
p4717
V54ff17ff26666
p4718
sV54bfbc61b629d
p4719
V54ff180e839d6
p4720
sV54bfbc6f61ad3
p4721
V54ff1802a3bca
p4722
sV54bfbc8d16c05
p4723
V54ff18091bf4f
p4724
sV54bfbc732f855
p4725
V54ff1803f0534
p4726
sV54bfbc9914646
p4727
V54ff180e11137
p4728
sV54bfbc7e05dde
p4729
V54ff18067b0ad
p4730
sV54bfbc7fc89ad
p4731
V54ff180725eb1
p4732
sV54bfbc984c4ac
p4733
V54ff180dd226a
p4734
sV54bfbc747d2fe
p4735
V54ff18044262a
p4736
sV54bfbc6f8eaa1
p4737
V54ff1802a63fc
p4738
sV54bfbc705fdf5
p4739
V54ff180300382
p4740
sV54bfbc5d61293
p4741
V54ff17fde7db2
p4742
sV54bfbc91db3e9
p4743
V54ff180bc4f03
p4744
sV54bfbc83e113a
p4745
V54ff180842229
p4746
sV54bfbc87e3541
p4747
V54ff180a31460
p4748
sV54bfbc7b86825
p4749
V54ff180618cb7
p4750
sV54bfbc6d173e5
p4751
V54ff18026b7dd
p4752
sV54bfbc95ef679
p4753
V54ff180d3ffd9
p4754
sV54bfbc99da1ec
p4755
V54ff180e33f70
p4756
sV54bfbc621f5b6
p4757
V54ff17ffa3811
p4758
sV54bfbc67cfedc
p4759
V54ff1800bd477
p4760
sV54bfbc89af1b1
p4761
V54ff180919032
p4762
sV54bfbc652554d
p4763
V54ff18003c42e
p4764
sV54bfbc6f737e1
p4765
V54ff1802a4be2
p4766
sV54bfbc8f8e24a
p4767
V54ff180b518a0
p4768
sV54bfbc93517a9
p4769
V54ff180caea6f
p4770
sV54bfbc5c9806b
p4771
V54ff17fdaf4ac
p4772
sV54bfbc5b2f350
p4773
V54ff17fd53d72
p4774
sV54bfbc81a6de7
p4775
V54ff18077b222
p4776
sV54bfbc9664ae0
p4777
V54ff180d64334
p4778
sV54bfbc964f034
p4779
V54ff180d3f4ae
p4780
sV54bfbc63736ff
p4781
V54ff180e82b29
p4782
sV54bfbc8e41ba3
p4783
V54ff180af173b
p4784
sV54bfbc748c3e7
p4785
V54ff1804671be
p4786
sV54bfbc7d69d19
p4787
V54ff18067b2cd
p4788
sV54bfbc5df386f
p4789
V54ff17fe26e15
p4790
sV54bfbc6338e81
p4791
V54ff180e840d2
p4792
sV54bfbc615d8ea
p4793
V54ff17ff28514
p4794
sV54bfbc8ae9e70
p4795
V54ff1809a1642
p4796
sV54bfbc5c8ff3e
p4797
V54ff17fd7724f
p4798
sV54bfbc747b759
p4799
V54ff180442348
p4800
sV54bfbc7e97702
p4801
V54ff1806a94d0
p4802
sV54bfbc608ea3e
p4803
V54ff17fee0e5b
p4804
sV54bfbc765a024
p4805
V54ff18048d6df
p4806
sV54bfbc6548c24
p4807
V54ff17ff70cc5
p4808
sV54bfbc5eaeecc
p4809
V54ff17fe8bc7c
p4810
sV54bfbc75c0b84
p4811
V54ff1803eed17
p4812
sV54bfbc5b31171
p4813
V54ff17fd53ff9
p4814
sV54bfbc894be86
p4815
V54ff180edbe96
p4816
sV54bfbc6861afa
p4817
V54ff1801ca665
p4818
sV54bfbc8713f89
p4819
V54ff1808de18a
p4820
sV54bfbc7cb88b4
p4821
V54ff180653543
p4822
sV54bfbc8f3f41d
p4823
V54ff180af2492
p4824
sV54bfbc90b95ea
p4825
V54ff180b9b3fa
p4826
sV54bfbc952eac9
p4827
V54ff180cb0cea
p4828
sV54bfbc984e1b2
p4829
V54ff180dd22fd
p4830
sV54bfbc7525168
p4831
V54ff180422a91
p4832
sV54bfbc8af23c2
p4833
V54ff180a0b97a
p4834
sV54bfbc68b2e6f
p4835
V54ff1801778c7
p4836
sV54bfbc8503707
p4837
V54ff18088c151
p4838
sV54bfbc5bd3b14
p4839
V54ff17fd7523e
p4840
sV54bfbc857c591
p4841
V54ff180866811
p4842
sV54bfbc6bac01d
p4843
V54ff1801a3793
p4844
sV54bfbc71eaa3b
p4845
V54ff180364d94
p4846
sV54bfbc8028282
p4847
V54ff1806ef717
p4848
sV54bfbc72c4537
p4849
V54ff1803c4190
p4850
sV54bfbc93784cd
p4851
V54ff180c43e0b
p4852
sV54bfbc6d6186b
p4853
V54ff180246b15
p4854
sV54bfbc6fd3adf
p4855
V54ff1802d0bad
p4856
sV54bfbc72b52f1
p4857
V54ff18039aa0d
p4858
sV54bfbc90c97d2
p4859
V54ff180b50cf8
p4860
sV54bfbc8bb3a15
p4861
V54ff1809a216b
p4862
sV54bfbc722ffed
p4863
V54ff180eb178e
p4864
sV54bfbc8f456f2
p4865
V54ff180af263e
p4866
sV54bfbc8548d4c
p4867
V54ff18088b422
p4868
sV54bfbc88d098b
p4869
V54ff1808deb37
p4870
sV54bfbc5c0bcac
p4871
V54ff17fd768ce
p4872
sV54bfbc84bc676
p4873
V54ff18081ae4a
p4874
sV54bfbc5fe2b2c
p4875
V54ff17feac93f
p4876
sV54bfbc98e6a00
p4877
V54ff180e10cfc
p4878
sV54bfbc5bf3562
p4879
V54ff17fd761ae
p4880
sV54bfbc78d4e2b
p4881
V54ff18052b1a9
p4882
sV54bfbc5f4ea87
p4883
V54ff17fe29c46
p4884
sV54bfbc69b2c57
p4885
V54ff18017566a
p4886
sV54bfbc97d7cb3
p4887
V54ff180dd08f9
p4888
sV54bfbc69f3213
p4889
V54ff180eaff29
p4890
sV54bfbc5e6d8e8
p4891
V54ff17fe5b1b1
p4892
sV54bfbc99163b2
p4893
V54ff180e11e7a
p4894
sV54bfbc989d4b8
p4895
V54ff180e0fc25
p4896
sV54bfbc8f7a421
p4897
V54ff180b20c08
p4898
sV54bfbc7427e78
p4899
V54ff18046480d
p4900
sV54bfbc812bbb9
p4901
V54ff180727b9c
p4902
sV54bfbc8a1a644
p4903
V54ff180953e0d
p4904
sV54bfbc87938b2
p4905
V54ff180a566db
p4906
sV54bfbc72898c7
p4907
V54ff180399ad2
p4908
sV54bfbc7731702
p4909
V54ff180eda2fe
p4910
sV54bfbc7026791
p4911
V54ff1802f420f
p4912
sV54bfbc7fb14de
p4913
V54ff180edb5de
p4914
sV54bfbc80b85c7
p4915
V54ff180754573
p4916
sV54bfbc6b3065b
p4917
V54ff1801c916e
p4918
sV54bfbc62e966d
p4919
V54ff18003c1bb
p4920
sV54bfbc956ed99
p4921
V54ff180ce5b84
p4922
sV54bfbc8db66af
p4923
V54ff180ac7fa2
p4924
sV54bfbc711c097
p4925
V54ff1803339c1
p4926
sV54bfbc8d5531e
p4927
V54ff180a5793f
p4928
sV54bfbc6660440
p4929
V54ff18008e4c7
p4930
sV54bfbc9547ac6
p4931
V54ff180ce3b81
p4932
sV54bfbc70bcbd6
p4933
V54ff180333052
p4934
sV54bfbc609e5a5
p4935
V54ff17fee01d8
p4936
sV54bfbc5bb994f
p4937
V54ff17fd549cc
p4938
sV54bfbc6cbe856
p4939
V54ff1801e9b64
p4940
sV54bfbc6d72c31
p4941
V54ff1801eaefc
p4942
sV54bfbc5d49ff5
p4943
V54ff17fe276f6
p4944
sV54bfbc652a9a8
p4945
V54ff18003cd86
p4946
sV54bfbc7c37b1a
p4947
V54ff1806541c9
p4948
sV54bfbc78479d0
p4949
V54ff180505842
p4950
sV54bfbc8e0f017
p4951
V54ff180af1260
p4952
sV54bfbc6d0daf7
p4953
V54ff18021e3c1
p4954
sV54bfbc9662518
p4955
V54ff180d64256
p4956
sV54bfbc7b9e996
p4957
V54ff180619854
p4958
sV54bfbc9a13ee6
p4959
V54ff180e5b8a1
p4960
sV54bfbc96f11a4
p4961
V54ff180d16daa
p4962
sV54bfbc6023550
p4963
V54ff17feae095
p4964
sV54bfbc6365981
p4965
V54ff17ff2713c
p4966
sV54bfbc64d8c57
p4967
V54ff180015c1d
p4968
sV54bfbc9541f49
p4969
V54ff180ce39d6
p4970
sV54bfbc78dffea
p4971
V54ff18052b657
p4972
sV54bfbc600f499
p4973
V54ff17fead44f
p4974
sV54bfbc99e7279
p4975
V54ff180e34625
p4976
sV54bfbc97339ec
p4977
V54ff180d66888
p4978
sV54bfbc7fe4f83
p4979
V54ff180754604
p4980
sV54bfbc5dd6454
p4981
V54ff17fde82ba
p4982
sV54bfbc7dc24a4
p4983
V54ff18065529b
p4984
sV54bfbc818bf0f
p4985
V54ff1807792de
p4986
sV54bfbc746967f
p4987
V54ff1803c5749
p4988
sV54bfbc6066ae6
p4989
V54ff17feaee70
p4990
sV54bfbc65a78bf
p4991
V54ff17ffd3eaf
p4992
sV54bfbc77f1edf
p4993
V54ff1804bfc5c
p4994
sV54bfbc6573714
p4995
V54ff17ffa50ba
p4996
sV54bfbc68bc47b
p4997
V54ff1801a293a
p4998
sV54bfbc635e41a
p4999
V54ff17ff26f7c
p5000
sV54bfbc8e3fbc4
p5001
V54ff180af1675
p5002
sV54bfbc61e5eae
p5003
V54ff17ffa3065
p5004
sV54bfbc67bd90c
p5005
V54ff1800e710a
p5006
sV54bfbc6234e94
p5007
V54ff17ffa407f
p5008
sV54bfbc62da7c3
p5009
V54ff1800166f6
p5010
sV54bfbc7cc24ba
p5011
V54ff18065497c
p5012
sV54bfbc7c1977e
p5013
V54ff18061e79b
p5014
sV54bfbc7ae7f71
p5015
V54ff1805b1431
p5016
sV54bfbc67b31b2
p5017
V54ff18014bcae
p5018
sV54bfbc79aae94
p5019
V54ff180545733
p5020
sV54bfbc63ce705
p5021
V54ff17ff71a2c
p5022
sV54bfbc73c42f4
p5023
V54ff1803c4f94
p5024
sV54bfbc7c3d58d
p5025
V54ff180653a3a
p5026
sV54bfbc9388998
p5027
V54ff180c44ca4
p5028
sV54bfbc8295135
p5029
V54ff1807dde87
p5030
sV54bfbc871622a
p5031
V54ff18091b44e
p5032
sV54bfbc64f3655
p5033
V54ff180e860d3
p5034
sV54bfbc8ab1148
p5035
V54ff18097a078
p5036
sV54bfbc93821f8
p5037
V54ff180c44ae5
p5038
sV54bfbc70771fc
p5039
V54ff1803011c1
p5040
sV54bfbc96dbff4
p5041
V54ff180d3fd64
p5042
sV54bfbc6776f8d
p5043
V54ff1800e6871
p5044
sV54bfbc6f704d2
p5045
V54ff1802a4a89
p5046
sV54bfbc7f297ad
p5047
V54ff1806cf41f
p5048
sV54bfbc68c81cf
p5049
V54ff1801a30ac
p5050
sV54bfbc62ba30f
p5051
V54ff17ff7246a
p5052
sV54bfbc7ce2231
p5053
V54ff18067b9e3
p5054
sV54bfbc61be0c0
p5055
V54ff17ff71454
p5056
sV54bfbc830c7de
p5057
V54ff1808197c6
p5058
sV54bfbc8268f82
p5059
V54ff180818f14
p5060
sV54bfbc72b14ae
p5061
V54ff18039a868
p5062
sV54bfbc764c29a
p5063
V54ff180467503
p5064
sV54bfbc828b0e5
p5065
V54ff180edb8a0
p5066
sV54bfbc7dd4ec2
p5067
V54ff1806a7d8e
p5068
sV54bfbc75488e8
p5069
V54ff180465553
p5070
sV54bfbc8a38950
p5071
V54ff1809a0ce5
p5072
sV54bfbc8895dbe
p5073
V54ff18094e6ce
p5074
sV54bfbc90776bd
p5075
V54ff180b51f9d
p5076
sV54bfbc6cdd4a8
p5077
V54ff18021deb5
p5078
sV54bfbc8b005a7
p5079
V54ff180a0add3
p5080
sV54bfbc99d8065
p5081
V54ff180e3420f
p5082
sV54bfbc6dd4b71
p5083
V54ff180245749
p5084
sV54bfbc8d7099f
p5085
V54ff180a856e7
p5086
sV54bfbc72f1b55
p5087
V54ff18039aee0
p5088
sV54bfbc6f7cb5f
p5089
V54ff1802cfd47
p5090
sV54bfbc624f637
p5091
V54ff17ffd5618
p5092
sV54bfbc89e9981
p5093
V54ff18091b378
p5094
sV54bfbc776ba62
p5095
V54ff1804bf5f8
p5096
sV54bfbc7e8e50f
p5097
V54ff18067ad94
p5098
sV54bfbc7d171a6
p5099
V54ff1806556bb
p5100
sV54bfbc832f135
p5101
V54ff18081a564
p5102
sV54bfbc5e3825a
p5103
V54ff17fe29769
p5104
sV54bfbc65584ba
p5105
V54ff17ffa459a
p5106
sV54bfbc5c713c4
p5107
V54ff17fdae0b4
p5108
sV54bfbc7fadb7f
p5109
V54ff1806efb8b
p5110
sV54bfbc99c9331
p5111
V54ff180e33bc8
p5112
sV54bfbc771d553
p5113
V54ff1804be9e3
p5114
sV54bfbc88c243f
p5115
V54ff180a565bc
p5116
sV54bfbc6e24551
p5117
V54ff180246e83
p5118
sV54bfbc95cfc44
p5119
V54ff180d3f7e9
p5120
sV54bfbc8dc4337
p5121
V54ff180ac8bf5
p5122
sV54bfbc63445f6
p5123
V54ff17ff71e03
p5124
sV54bfbc723573c
p5125
V54ff180399173
p5126
sV54bfbc71514d2
p5127
V54ff180333e32
p5128
sV54bfbc831c169
p5129
V54ff180819da8
p5130
sV54bfbc630a0ab
p5131
V54ff17ff4ae8d
p5132
sV54bfbc7d09302
p5133
V54ff1806a8a65
p5134
sV54bfbc6c00693
p5135
V54ff180174c2f
p5136
sV54bfbc6d09e61
p5137
V54ff18021e0bf
p5138
sV54bfbc96aa9c0
p5139
V54ff180d15c80
p5140
sV54bfbc66012aa
p5141
V54ff18003dc98
p5142
sV54bfbc649a8db
p5143
V54ff1800157fc
p5144
sV54bfbc9713aef
p5145
V54ff180d654e6
p5146
sV54bfbc75218cd
p5147
V54ff1803c5c9e
p5148
sV54bfbc7e93f70
p5149
V54ff1806a9346
p5150
sV54bfbc7496b44
p5151
V54ff180422045
p5152
sV54bfbc7c2a147
p5153
V54ff18061a376
p5154
sV54bfbc9a5a64b
p5155
V54ff180f0f2d8
p5156
sV54bfbc9910a85
p5157
V54ff180e113f8
p5158
sV54bfbc9370aff
p5159
V54ff180c73c5a
p5160
sV54bfbc62aad32
p5161
V54ff180014173
p5162
sV54bfbc7b4ef8a
p5163
V54ff1805b39ac
p5164
sV54bfbc6f40986
p5165
V54ff1802a3459
p5166
sV54bfbc5f400bc
p5167
V54ff17fe5bd16
p5168
sV54bfbc8b8490f
p5169
V54ff1809a1985
p5170
sV54bfbc8192757
p5171
V54ff180779fc2
p5172
sV54bfbc5fe4b15
p5173
V54ff17feaca21
p5174
sV54bfbc91f062b
p5175
V54ff180c0c7f8
p5176
sV54bfbc6055ac3
p5177
V54ff17feaddd9
p5178
sV54bfbc732d687
p5179
V54ff1803f0411
p5180
sV54bfbc80c3604
p5181
V54ff1807546d0
p5182
sV54bfbc8568c1b
p5183
V54ff18088a42e
p5184
sV54bfbc6868613
p5185
V54ff18014b094
p5186
sV54bfbc5b8a34b
p5187
V54ff17fd54410
p5188
sV54bfbc5ec3d22
p5189
V54ff17fe8c41d
p5190
sV54bfbc7f21ec6
p5191
V54ff1806cf08a
p5192
sV54bfbc8db2a81
p5193
V54ff180ac7d4c
p5194
sV54bfbc7de68fa
p5195
V54ff18067c718
p5196
sV54bfbc8e51326
p5197
V54ff180af1d4d
p5198
sV54bfbc8af061d
p5199
V54ff180a0bc79
p5200
sV54bfbc6269e2e
p5201
V54ff180e85c7b
p5202
sV54bfbc87cf17b
p5203
V54ff180a3225a
p5204
sV54bfbc63082fe
p5205
V54ff18003ca20
p5206
sV54bfbc73be2de
p5207
V54ff180440622
p5208
sV54bfbc969fc84
p5209
V54ff180d17366
p5210
sV54bfbc8045401
p5211
V54ff180753261
p5212
sV54bfbc96e881a
p5213
V54ff180d161cf
p5214
sV54bfbc7a99df9
p5215
V54ff1805b2610
p5216
sV54bfbc7f1423e
p5217
V54ff1806cea0a
p5218
sV54bfbc887a401
p5219
V54ff180a0cec1
p5220
sV54bfbc6bedded
p5221
V54ff18014cabb
p5222
sV54bfbc5be2607
p5223
V54ff17fd75bba
p5224
sV54bfbc81d3433
p5225
V54ff1807db8a5
p5226
sV54bfbc879bbef
p5227
V54ff180a563c0
p5228
sV54bfbc793745e
p5229
V54ff180542926
p5230
sV54bfbc98dd2b3
p5231
V54ff180e10721
p5232
sV54bfbc6e1ed44
p5233
V54ff180246cc9
p5234
sV54bfbc62d8d1b
p5235
V54ff180015634
p5236
sV54bfbc6bb872c
p5237
V54ff18014b423
p5238
sV54bfbc6abb2be
p5239
V54ff1801a48e2
p5240
sV54bfbc82149d9
p5241
V54ff1807dc015
p5242
sV54bfbc8f033b0
p5243
V54ff180edc890
p5244
sV54bfbc942d6ca
p5245
V54ff180c7aad2
p5246
sV54bfbc623eb52
p5247
V54ff17ffa4412
p5248
sV54bfbc6c78a69
p5249
V54ff180176b23
p5250
sV54bfbc7421fd5
p5251
V54ff180442841
p5252
sV54bfbc69429af
p5253
V54ff1800bc944
p5254
sV54bfbc6d4b3e3
p5255
V54ff18026bc4a
p5256
sV54bfbc889b0e9
p5257
V54ff18094e8b0
p5258
sV54bfbc7565840
p5259
V54ff180eb29d5
p5260
sV54bfbc6b1359e
p5261
V54ff1801a4da5
p5262
sV54bfbc71f06a1
p5263
V54ff1803653cb
p5264
sV54bfbc80b4899
p5265
V54ff180778f8b
p5266
sV54bfbc92e43cf
p5267
V54ff180c74578
p5268
sV54bfbc7f0532f
p5269
V54ff1806ce34a
p5270
sV54bfbc634837a
p5271
V54ff17ffd4e87
p5272
sV54bfbc9235f7c
p5273
V54ff180c0dd5b
p5274
sV54bfbc9367246
p5275
V54ff180caf689
p5276
sV54bfbc991df3e
p5277
V54ff180e1182a
p5278
sV54bfbc90f22b7
p5279
V54ff180b5047a
p5280
sV54bfbc5e3658c
p5281
V54ff17fe296af
p5282
sV54bfbc8f5986b
p5283
V54ff180af2d5c
p5284
sV54bfbc6951db6
p5285
V54ff1800bd3b6
p5286
sV54bfbc6bf2752
p5287
V54ff18014ce7b
p5288
sV54bfbc634c35e
p5289
V54ff17ff26824
p5290
sV54bfbc6259177
p5291
V54ff17ffd5ceb
p5292
sV54bfbc757d181
p5293
V54ff1804403bc
p5294
sV54bfbc71ccf82
p5295
V54ff180398d90
p5296
sV54bfbc7f3b8cf
p5297
V54ff1806ee205
p5298
sV54bfbc86746e9
p5299
V54ff18097a677
p5300
sV54bfbc90d5b34
p5301
V54ff180b76db2
p5302
sV54bfbc738cfcb
p5303
V54ff180421e69
p5304
sV54bfbc624bb77
p5305
V54ff17ffd4fa4
p5306
sV54bfbc92bf2e4
p5307
V54ff180c42ccd
p5308
sV54bfbc8db0e8b
p5309
V54ff180ac7c25
p5310
sV54bfbc91e2f25
p5311
V54ff180bc50a9
p5312
sV54bfbc87a8a4f
p5313
V54ff18094ebb9
p5314
sV54bfbc68b110c
p5315
V54ff180177796
p5316
sV54bfbc65de5f1
p5317
V54ff18003d835
p5318
sV54bfbc5c2531c
p5319
V54ff17fd775cb
p5320
sV54bfbc60c72ba
p5321
V54ff17fedf5ea
p5322
sV54bfbc607f4bc
p5323
V54ff17fedf91a
p5324
sV54bfbc8566da7
p5325
V54ff18088a51e
p5326
sV54bfbc6e8180d
p5327
V54ff18026d491
p5328
sV54bfbc68b8a81
p5329
V54ff1801a2d14
p5330
sV54bfbc745ad23
p5331
V54ff1803f08bc
p5332
sV54bfbc7ea907e
p5333
V54ff180edb234
p5334
sV54bfbc8951975
p5335
V54ff180a0c9c9
p5336
sV54bfbc97b3909
p5337
V54ff180da4db7
p5338
sV54bfbc648e72f
p5339
V54ff180014d28
p5340
sV54bfbc5f353b9
p5341
V54ff17fe8c9d9
p5342
sV54bfbc99c5573
p5343
V54ff180e3396d
p5344
sV54bfbc8c52d51
p5345
V54ff18091b04e
p5346
sV54bfbc6bd92aa
p5347
V54ff18014c273
p5348
sV54bfbc85e4090
p5349
V54ff1808b05d0
p5350
sV54bfbc5d0182e
p5351
V54ff17fdafe9d
p5352
sV54bfbc6d5daee
p5353
V54ff180246a74
p5354
sV54bfbc90c7700
p5355
V54ff180b510f2
p5356
sV54bfbc6bc64ad
p5357
V54ff18014b862
p5358
sV54bfbc79e6240
p5359
V54ff1805436ab
p5360
sV54bfbc79b3fdd
p5361
V54ff180545b5e
p5362
sV54bfbc8287140
p5363
V54ff1807dd930
p5364
sV54bfbc63587f1
p5365
V54ff17ff27583
p5366
sV54bfbc8d2789e
p5367
V54ff180a56ed6
p5368
sV54bfbc5b249dc
p5369
V54ff17fd53bf1
p5370
sV54bfbc8038a57
p5371
V54ff180753e0e
p5372
sV54bfbc66d0a6e
p5373
V54ff18008d75c
p5374
sV54bfbc6eb74c5
p5375
V54ff1802a2b1b
p5376
sV54bfbc7666828
p5377
V54ff18048d894
p5378
sV54bfbc7ab0ca9
p5379
V54ff1805b37f2
p5380
sV54bfbc5eaa9cb
p5381
V54ff17fe5b992
p5382
sV54bfbc86397d1
p5383
V54ff180919db3
p5384
sV54bfbc7fdde6a
p5385
V54ff1806ef18b
p5386
sV54bfbc6c7114f
p5387
V54ff18011e275
p5388
sV54bfbc896dc0d
p5389
V54ff180a0c1f9
p5390
sV54bfbc8decaca
p5391
V54ff180ac9cd6
p5392
sV54bfbc68b70a0
p5393
V54ff180177e67
p5394
sV54bfbc613ae8e
p5395
V54ff17ff279c6
p5396
sV54bfbc6fe365a
p5397
V54ff1802d11bc
p5398
sV54bfbc6766ad1
p5399
V54ff1800e5f83
p5400
sV54bfbc8df24cc
p5401
V54ff180af208b
p5402
sV54bfbc8c5efa2
p5403
V54ff18094d7c6
p5404
sV54bfbc7932966
p5405
V54ff180542a11
p5406
sV54bfbc79a31b6
p5407
V54ff180545185
p5408
sV54bfbc76df9a9
p5409
V54ff1804be5d8
p5410
sV54bfbc9572a0d
p5411
V54ff180ce613d
p5412
sV54bfbc8043835
p5413
V54ff180753196
p5414
sV54bfbc6c5db75
p5415
V54ff18011db61
p5416
sV54bfbc7911614
p5417
V54ff18052b8f5
p5418
sV54bfbc8b3f39c
p5419
V54ff1809a1b33
p5420
sV54bfbc75a6ac8
p5421
V54ff180440563
p5422
sV54bfbc8b86715
p5423
V54ff1809a1f77
p5424
sV54bfbc6240a0d
p5425
V54ff17ffd4708
p5426
sV54bfbc7533fa0
p5427
V54ff180465631
p5428
sV54bfbc793c441
p5429
V54ff180542d85
p5430
sV54bfbc65cf62b
p5431
V54ff18003db41
p5432
sV54bfbc68d5ed8
p5433
V54ff1801c9df2
p5434
sV54bfbc78d6d44
p5435
V54ff18052b259
p5436
sV54bfbc5e6fa3f
p5437
V54ff17fe5b236
p5438
sV54bfbc82a31d4
p5439
V54ff1807de556
p5440
sV54bfbc70b5878
p5441
V54ff180332e97
p5442
sV54bfbc6ea2010
p5443
V54ff18026de8b
p5444
sV54bfbc7285b25
p5445
V54ff180399979
p5446
sV54bfbc8558ce2
p5447
V54ff18088aa29
p5448
sV54bfbc8d36325
p5449
V54ff180a573e7
p5450
sV54bfbc871a485
p5451
V54ff18094db8e
p5452
sV54bfbc825ddfc
p5453
V54ff1807dc57f
p5454
sV54bfbc5d4df6d
p5455
V54ff17fe27926
p5456
sV54bfbc73b7e66
p5457
V54ff1803c52dc
p5458
sV54bfbc5fd102d
p5459
V54ff17fe8d3a1
p5460
sV54bfbc6dcb3ea
p5461
V54ff180245431
p5462
sV54bfbc957dafa
p5463
V54ff180d15982
p5464
sV54bfbc69aec8c
p5465
V54ff1801754a1
p5466
sV54bfbc92a80fe
p5467
V54ff180c420d5
p5468
sV54bfbc6a6bc06
p5469
V54ff1801a3634
p5470
sV54bfbc635a415
p5471
V54ff17ff2766e
p5472
sV54bfbc8acc89b
p5473
V54ff1808e06a7
p5474
sV54bfbc6d51657
p5475
V54ff18026bf4f
p5476
sV54bfbc96af163
p5477
V54ff180d15ecc
p5478
sV54bfbc64ec2d1
p5479
V54ff180016439
p5480
sV54bfbc92c89ef
p5481
V54ff180c43169
p5482
sV54bfbc74944bc
p5483
V54ff1803c5d98
p5484
sV54bfbc81a15cc
p5485
V54ff18077aee6
p5486
sV54bfbc80ba3c6
p5487
V54ff1806efafd
p5488
sV54bfbc991c092
p5489
V54ff180e11760
p5490
sV54bfbc719fd4f
p5491
V54ff180363acc
p5492
sV54bfbc957a276
p5493
V54ff180ce5f20
p5494
sV54bfbc95db53d
p5495
V54ff180d3e440
p5496
sV54bfbc5b8c108
p5497
V54ff17fd5449c
p5498
sV54bfbc8fe7fae
p5499
V54ff180b7667f
p5500
sV54bfbc933858d
p5501
V54ff180cadd8e
p5502
sV54bfbc8a361ad
p5503
V54ff1809786bb
p5504
sV54bfbc84ca2d5
p5505
V54ff180864ac5
p5506
sV54bfbc5cf17e4
p5507
V54ff17fdafdd9
p5508
sV54bfbc7637e3e
p5509
V54ff1803eeae5
p5510
sV54bfbc6507196
p5511
V54ff18003c3ba
p5512
sV54bfbc6e07e3c
p5513
V54ff18021da15
p5514
sV54bfbc733d2a6
p5515
V54ff180440859
p5516
sV54bfbc8c95e45
p5517
V54ff1809d1ed3
p5518
sV54bfbc9612cc7
p5519
V54ff180d3f0d4
p5520
sV54bfbc5be046f
p5521
V54ff17fd75a6d
p5522
sV54bfbc673f9af
p5523
V54ff18008f532
p5524
sV54bfbc8bc3537
p5525
V54ff18094f7d1
p5526
sV54bfbc9a098a5
p5527
V54ff180e5a6c4
p5528
sV54bfbc6dc10fe
p5529
V54ff18021cc76
p5530
sV54bfbc8461614
p5531
V54ff180865843
p5532
sV54bfbc8d3f4c3
p5533
V54ff180a56c77
p5534
sV54bfbc747240f
p5535
V54ff180441997
p5536
sV54bfbc6745daa
p5537
V54ff18011cb1b
p5538
sV54bfbc67d44ca
p5539
V54ff1800bdb22
p5540
sV54bfbc955ae14
p5541
V54ff180f0ea41
p5542
sV54bfbc832ac9e
p5543
V54ff18081a3ff
p5544
sV54bfbc858896b
p5545
V54ff18088a7c6
p5546
sV54bfbc8056261
p5547
V54ff18077908e
p5548
sV54bfbc75d1445
p5549
V54ff18046507e
p5550
sV54bfbc804ba05
p5551
V54ff180753573
p5552
sV54bfbc8ae8021
p5553
V54ff1809a159a
p5554
sV54bfbc87ae7b6
p5555
V54ff180979ae6
p5556
sV54bfbc676ed9d
p5557
V54ff1800e643a
p5558
sV54bfbc671e211
p5559
V54ff18008e259
p5560
sV54bfbc92d0560
p5561
V54ff180c43484
p5562
sV54bfbc67af46a
p5563
V54ff18011c38b
p5564
sV54bfbc62be71b
p5565
V54ff17ff725d8
p5566
sV54bfbc79d93cd
p5567
V54ff18057bbcb
p5568
sV54bfbc74a44bd
p5569
V54ff18042229d
p5570
sV54bfbc85d9dd6
p5571
V54ff1808afc89
p5572
sV54bfbc8e0743f
p5573
V54ff180b1f137
p5574
sV54bfbc6221434
p5575
V54ff17ffa3718
p5576
sV54bfbc992b7d4
p5577
V54ff180e11f35
p5578
sV54bfbc73162f4
p5579
V54ff1803c4683
p5580
sV54bfbc9908695
p5581
V54ff180e10ea6
p5582
sV54bfbc7ec24e0
p5583
V54ff1806cfcc0
p5584
sV54bfbc7668e37
p5585
V54ff18048dc3c
p5586
sV54bfbc91d3527
p5587
V54ff180c0c348
p5588
sV54bfbc80f3c12
p5589
V54ff180edb66c
p5590
sV54bfbc8319da0
p5591
V54ff180819cc6
p5592
sV54bfbc61ebebf
p5593
V54ff180e84a4f
p5594
sV54bfbc82a53b8
p5595
V54ff1807de61c
p5596
sV54bfbc6099b5a
p5597
V54ff17fede922
p5598
sV54bfbc75de28b
p5599
V54ff1803ef1e5
p5600
sV54bfbc67cd9d8
p5601
V54ff1800e474c
p5602
sV54bfbc81c2718
p5603
V54ff1807ccfd9
p5604
sV54bfbc8c85540
p5605
V54ff1809d2ec6
p5606
sV54bfbc5e8275b
p5607
V54ff17fe5b4a8
p5608
sV54bfbc6a01168
p5609
V54ff1800e51f9
p5610
sV54bfbc6582d7b
p5611
V54ff17ffaa6b3
p5612
sV54bfbc5fc2b96
p5613
V54ff17fe8ce6c
p5614
sV54bfbc6128573
p5615
V54ff17fee21c3
p5616
sV54bfbc6c7354f
p5617
V54ff18011e36c
p5618
sV54bfbc603244a
p5619
V54ff17feae891
p5620
sV54bfbc956c9b7
p5621
V54ff180ce5a70
p5622
sV54bfbc6fc332c
p5623
V54ff1802d0681
p5624
sV54bfbc77144e0
p5625
V54ff1804bda15
p5626
sV54bfbc8c6372a
p5627
V54ff18094facd
p5628
sV54bfbc5d38bbc
p5629
V54ff17fe27344
p5630
sV54bfbc6d655d2
p5631
V54ff18026c23d
p5632
sV54bfbc6729a28
p5633
V54ff18008eaa2
p5634
sV54bfbc713c57b
p5635
V54ff180334190
p5636
sV54bfbc858fe3b
p5637
V54ff1808aee9a
p5638
sV54bfbc7d72820
p5639
V54ff18067b6bc
p5640
sV54bfbc82b5523
p5641
V54ff180818672
p5642
sV54bfbc5e67dfc
p5643
V54ff17fe5ac65
p5644
sV54bfbc79ad284
p5645
V54ff180545839
p5646
sV54bfbc6e8dd18
p5647
V54ff18026d828
p5648
sV54bfbc5e6bad7
p5649
V54ff17fe5b131
p5650
sV54bfbc720210b
p5651
V54ff180eb167d
p5652
sV54bfbc752347e
p5653
V54ff180421815
p5654
sV54bfbc74158ab
p5655
V54ff180441e8e
p5656
sV54bfbc75b98f9
p5657
V54ff180422f85
p5658
sV54bfbc67d63df
p5659
V54ff1800bc627
p5660
sV54bfbc64e204a
p5661
V54ff180e85f51
p5662
sV54bfbc734f3e7
p5663
V54ff1804400b9
p5664
sV54bfbc7147959
p5665
V54ff1803624f0
p5666
sV54bfbc871df36
p5667
V54ff1808de37c
p5668
sV54bfbc6c53753
p5669
V54ff18011d70a
p5670
sV54bfbc95587a2
p5671
V54ff180ce4956
p5672
sV54bfbc89f09b6
p5673
V54ff18094f0ce
p5674
sV54bfbc6650559
p5675
V54ff180eafc9f
p5676
sV54bfbc8969e63
p5677
V54ff180a0c37c
p5678
sV54bfbc788d22c
p5679
V54ff1805060e0
p5680
sV54bfbc8adb3b9
p5681
V54ff1808e0cba
p5682
sV54bfbc90c3249
p5683
V54ff180b50f15
p5684
sV54bfbc65755ad
p5685
V54ff17ffd4324
p5686
sV54bfbc90e3a2e
p5687
V54ff180b9ab34
p5688
sV54bfbc6b2ab1d
p5689
V54ff1801c8f28
p5690
sV54bfbc6b45552
p5691
V54ff180177acd
p5692
sV54bfbc71b7316
p5693
V54ff180363520
p5694
sV54bfbc872da60
p5695
V54ff1809195d2
p5696
sV54bfbc691761e
p5697
V54ff1801ca48a
p5698
sV54bfbc95568a4
p5699
V54ff180ce4439
p5700
sV54bfbc6c418c0
p5701
V54ff18011cef2
p5702
sV54bfbc7cc5c56
p5703
V54ff180654852
p5704
sV54bfbc9835f04
p5705
V54ff180dd1896
p5706
sV54bfbc5c6874c
p5707
V54ff17fdae965
p5708
sV54bfbc7b0f6e7
p5709
V54ff1805b1f9e
p5710
sV54bfbc87eabd6
p5711
V54ff180a0d616
p5712
sV54bfbc99745ba
p5713
V54ff180e32297
p5714
sV54bfbc7cf3f8f
p5715
V54ff1806557f9
p5716
sV54bfbc87b1e5a
p5717
V54ff18097a727
p5718
sV54bfbc6bd382f
p5719
V54ff180eb00a3
p5720
sV54bfbc6356a63
p5721
V54ff17ff26c8f
p5722
sV54bfbc7399793
p5723
V54ff180eb2021
p5724
sV54bfbc60aecca
p5725
V54ff17fedfd60
p5726
sV54bfbc741a665
p5727
V54ff180442243
p5728
sV54bfbc7b6e356
p5729
V54ff1806188d0
p5730
sV54bfbc8f5b78f
p5731
V54ff180edc588
p5732
sV54bfbc9700bab
p5733
V54ff180d17a4d
p5734
sV54bfbc789eec8
p5735
V54ff180506787
p5736
sV54bfbc633abbc
p5737
V54ff17ff71b9c
p5738
sV54bfbc810cbd7
p5739
V54ff180726c4f
p5740
sV54bfbc649c8b0
p5741
V54ff1800158dc
p5742
sV54bfbc915d471
p5743
V54ff180bc2407
p5744
sV54bfbc62a730a
p5745
V54ff180013f82
p5746
sV54bfbc7cbeadc
p5747
V54ff180653754
p5748
sV54bfbc7dc60bc
p5749
V54ff180edb0b6
p5750
sV54bfbc8e12c8c
p5751
V54ff180af13e5
p5752
sV54bfbc6d94c18
p5753
V54ff18021ca52
p5754
sV54bfbc6cc24dc
p5755
V54ff1801e9d17
p5756
sV54bfbc818e3d4
p5757
V54ff18077948e
p5758
sV54bfbc9143b55
p5759
V54ff180b9b7b0
p5760
sV54bfbc7ce650d
p5761
V54ff18067c0d1
p5762
sV54bfbc6652718
p5763
V54ff18003dbec
p5764
sV54bfbc79dcc80
p5765
V54ff180edac57
p5766
sV54bfbc694d615
p5767
V54ff1800bd06b
p5768
sV54bfbc803c390
p5769
V54ff180752dff
p5770
sV54bfbc8958149
p5771
V54ff1808e0e6a
p5772
sV54bfbc5eb742b
p5773
V54ff17fe8bf82
p5774
sV54bfbc974aa37
p5775
V54ff180da6014
p5776
sV54bfbc84c4505
p5777
V54ff1808432e2
p5778
sV54bfbc945048d
p5779
V54ff180cad6e1
p5780
sV54bfbc9427d62
p5781
V54ff180c7a946
p5782
sV54bfbc6dd8c1c
p5783
V54ff18024591d
p5784
sV54bfbc66d67b3
p5785
V54ff18008da2f
p5786
sV54bfbc6477d05
p5787
V54ff180e83b2a
p5788
sV54bfbc7553794
p5789
V54ff18046639c
p5790
sV54bfbc95d3746
p5791
V54ff180d17d36
p5792
sV54bfbc85e24af
p5793
V54ff1808af9ae
p5794
sV54bfbc90d9a56
p5795
V54ff180b99f5d
p5796
sV54bfbc84a0c52
p5797
V54ff180866d68
p5798
sV54bfbc7b7b7fb
p5799
V54ff1806186cc
p5800
sV54bfbc96ead26
p5801
V54ff180d1649d
p5802
sV54bfbc944ddcf
p5803
V54ff180c7ac90
p5804
sV54bfbc5d1031c
p5805
V54ff17fde6318
p5806
sV54bfbc8a9f923
p5807
V54ff180979ea6
p5808
sV54bfbc640ef35
p5809
V54ff17ff4af6f
p5810
sV54bfbc84516f8
p5811
V54ff180865dff
p5812
sV54bfbc6cd852e
p5813
V54ff18021c411
p5814
sV54bfbc6dcd276
p5815
V54ff1802454f5
p5816
sV54bfbc8a07b60
p5817
V54ff180953c9f
p5818
sV54bfbc6228d7c
p5819
V54ff17ffa3a31
p5820
sV54bfbc5f5123c
p5821
V54ff17fe29cd0
p5822
sV54bfbc611f85e
p5823
V54ff17fee1e63
p5824
sV54bfbc95498f7
p5825
V54ff180ce3c58
p5826
sV54bfbc7e6f162
p5827
V54ff180654c06
p5828
sV54bfbc74830c7
p5829
V54ff180eb26da
p5830
sV54bfbc85dba2c
p5831
V54ff1808afbac
p5832
sV54bfbc8a282e4
p5833
V54ff1809a0e88
p5834
sV54bfbc8d12479
p5835
V54ff18091bd70
p5836
sV54bfbc709cba0
p5837
V54ff1803015fe
p5838
sV54bfbc87015dc
p5839
V54ff1808b219b
p5840
sV54bfbc827004f
p5841
V54ff1807dcf2f
p5842
sV54bfbc86efc44
p5843
V54ff1808b1f8a
p5844
sV54bfbc81d8e29
p5845
V54ff1807dbb29
p5846
sV54bfbc5c1a7a0
p5847
V54ff17fd76f73
p5848
sV54bfbc8e43a83
p5849
V54ff180af17f6
p5850
sV54bfbc7302064
p5851
V54ff1803c3c53
p5852
sV54bfbc9587f4b
p5853
V54ff180ce63ac
p5854
sV54bfbc70a23ca
p5855
V54ff1803018a8
p5856
sV54bfbc7b974f7
p5857
V54ff1806192ad
p5858
sV54bfbc65ec691
p5859
V54ff18003d32a
p5860
sV54bfbc79723c7
p5861
V54ff1805449b9
p5862
sV54bfbc8cba9f7
p5863
V54ff1809d1a2d
p5864
sV54bfbc87bb6a4
p5865
V54ff180a32c6a
p5866
sV54bfbc8a2f2e5
p5867
V54ff1809a0d6e
p5868
sV54bfbc6b93cee
p5869
V54ff1801c98db
p5870
sV54bfbc96792a4
p5871
V54ff180d3fb87
p5872
sV54bfbc676cf6c
p5873
V54ff1800e6372
p5874
sV54bfbc84de2ad
p5875
V54ff18088cb54
p5876
sV54bfbc7fb6c0f
p5877
V54ff180725647
p5878
sV54bfbc78ae8fd
p5879
V54ff18052a491
p5880
sV54bfbc84be5aa
p5881
V54ff180841999
p5882
sV54bfbc901a9b7
p5883
V54ff180b21bb5
p5884
sV54bfbc6cce108
p5885
V54ff1801ea5a1
p5886
sV54bfbc92c0f60
p5887
V54ff180c42d8c
p5888
sV54bfbc7f80b66
p5889
V54ff1806ee881
p5890
sV54bfbc8583cce
p5891
V54ff180864d64
p5892
sV54bfbc6df1d36
p5893
V54ff18021bc66
p5894
sV54bfbc741e565
p5895
V54ff180442500
p5896
sV54bfbc8546b01
p5897
V54ff18088b4dc
p5898
sV54bfbc9831652
p5899
V54ff180dd16d0
p5900
sV54bfbc9861f25
p5901
V54ff180dd2a2f
p5902
sV54bfbc80edfa9
p5903
V54ff180726431
p5904
sV54bfbc829cdc1
p5905
V54ff1807de21a
p5906
sV54bfbc64161d5
p5907
V54ff17ff4b49c
p5908
sV54bfbc888cde5
p5909
V54ff18094e3a0
p5910
sV54bfbc7e9b306
p5911
V54ff1806cf852
p5912
sV54bfbc8f89ec9
p5913
V54ff180b517df
p5914
sV54bfbc7a89be7
p5915
V54ff18057cb57
p5916
sV54bfbc9161afc
p5917
V54ff180bc2563
p5918
sV54bfbc6566168
p5919
V54ff17ffa4a2e
p5920
sV54bfbc7ce0279
p5921
V54ff18067b773
p5922
sV54bfbc7203dac
p5923
V54ff180365569
p5924
sV54bfbc5e90105
p5925
V54ff17fe5ae55
p5926
sV54bfbc82e9993
p5927
V54ff180818ce3
p5928
sV54bfbc990c37e
p5929
V54ff180e1105e
p5930
sV54bfbc6a0fb6f
p5931
V54ff180175b7f
p5932
sV54bfbc783f989
p5933
V54ff180505527
p5934
sV54bfbc655c176
p5935
V54ff17ffa4674
p5936
sV54bfbc74eb518
p5937
V54ff1804226d9
p5938
sV54bfbc9543c08
p5939
V54ff180ce3aa3
p5940
sV54bfbc8f08706
p5941
V54ff180b1f646
p5942
sV54bfbc5d40feb
p5943
V54ff180e5cd66
p5944
sV54bfbc972f9d8
p5945
V54ff180d665f0
p5946
sV54bfbc62acaf3
p5947
V54ff18001429a
p5948
sV54bfbc6758216
p5949
V54ff1800e5724
p5950
sV54bfbc65f2f9e
p5951
V54ff18003d952
p5952
sV54bfbc8835ba0
p5953
V54ff180a0d10a
p5954
sV54bfbc7dcc274
p5955
V54ff18067a918
p5956
sV54bfbc6c2fca8
p5957
V54ff180174ae3
p5958
sV54bfbc87b399b
p5959
V54ff18097a7cb
p5960
sV54bfbc7891455
p5961
V54ff180506221
p5962
sV54bfbc86662ab
p5963
V54ff180a0b4cb
p5964
sV54bfbc7fcccea
p5965
V54ff1807524a1
p5966
sV54bfbc907bda6
p5967
V54ff180b52128
p5968
sV54bfbc63d239c
p5969
V54ff180016635
p5970
sV54bfbc5fec693
p5971
V54ff17feacf04
p5972
sV54bfbc806b7a7
p5973
V54ff180725dde
p5974
sV54bfbc5dee3ae
p5975
V54ff17fde8ceb
p5976
sV54bfbc8330e64
p5977
V54ff18081a6c2
p5978
sV54bfbc6e1a41d
p5979
V54ff18026bad2
p5980
sV54bfbc8b0848d
p5981
V54ff1809a1a0b
p5982
sV54bfbc88d259c
p5983
V54ff180a33022
p5984
sV54bfbc9a5696f
p5985
V54ff180e5bb15
p5986
sV54bfbc7f274ad
p5987
V54ff1806cf305
p5988
sV54bfbc7f185bf
p5989
V54ff1806cebe1
p5990
sV54bfbc8d321c6
p5991
V54ff180a572a9
p5992
sV54bfbc5b81473
p5993
V54ff17fd540e6
p5994
sV54bfbc7aced01
p5995
V54ff1805b26b3
p5996
sV54bfbc749c762
p5997
V54ff1804221f9
p5998
sV54bfbc6e9f3c4
p5999
V54ff18026ddbc
p6000
sV54bfbc685f87e
p6001
V54ff1801cacc7
p6002
sV54bfbc754fb23
p6003
V54ff180465fc6
p6004
sV54bfbc895382e
p6005
V54ff18091922f
p6006
sV54bfbc7d6dcf3
p6007
V54ff18067b448
p6008
sV54bfbc7577b9a
p6009
V54ff180ed9f31
p6010
sV54bfbc62de2dd
p6011
V54ff18003bf34
p6012
sV54bfbc6661f94
p6013
V54ff18008e771
p6014
sV54bfbc81510e5
p6015
V54ff18077a617
p6016
sV54bfbc5c1ea6c
p6017
V54ff17fd7713a
p6018
sV54bfbc65542c5
p6019
V54ff180e851e6
p6020
sV54bfbc73b60be
p6021
V54ff1803c57ca
p6022
sV54bfbc6c8222a
p6023
V54ff1801e94f2
p6024
sV54bfbc6612f69
p6025
V54ff1800636cb
p6026
sV54bfbc9353863
p6027
V54ff180caebe0
p6028
sV54bfbc633eb4e
p6029
V54ff180e8420c
p6030
sV54bfbc627a9e4
p6031
V54ff17ffd69f2
p6032
sV54bfbc916b7bc
p6033
V54ff180bc2cd3
p6034
sV54bfbc838484b
p6035
V54ff180842e01
p6036
sV54bfbc6920b72
p6037
V54ff18008f770
p6038
sV54bfbc65ad562
p6039
V54ff17ffd40a8
p6040
sV54bfbc75b5c2e
p6041
V54ff180422ddc
p6042
sV54bfbc89bb73b
p6043
V54ff18091a9fb
p6044
sV54bfbc8963d11
p6045
V54ff180a0c4ce
p6046
sV54bfbc6a52121
p6047
V54ff180176499
p6048
sV54bfbc819439a
p6049
V54ff18077a8db
p6050
sV54bfbc92cebea
p6051
V54ff180c433cd
p6052
sV54bfbc65b2f0b
p6053
V54ff17ffa4f6c
p6054
sV54bfbc5e342c2
p6055
V54ff17fe289c1
p6056
sV54bfbc612ed8c
p6057
V54ff17ff264d6
p6058
sV54bfbc5df1d6d
p6059
V54ff17fde8e67
p6060
sV54bfbc7cdbe3b
p6061
V54ff1806a6bb4
p6062
sV54bfbc76d5601
p6063
V54ff1804bde5d
p6064
sV54bfbc75e3945
p6065
V54ff1803ef5ae
p6066
sV54bfbc8457300
p6067
V54ff180866182
p6068
sV54bfbc69e05b5
p6069
V54ff1800e4c92
p6070
sV54bfbc9574cfe
p6071
V54ff180ce6221
p6072
sV54bfbc767d2db
p6073
V54ff18048e65b
p6074
sV54bfbc64e8730
p6075
V54ff1800162c1
p6076
sV54bfbc7453a82
p6077
V54ff180eb1b1f
p6078
sV54bfbc8727fcd
p6079
V54ff1808dee85
p6080
sV54bfbc97b73cb
p6081
V54ff180da4f66
p6082
sV54bfbc60c9c65
p6083
V54ff17fedfa4b
p6084
sV54bfbc843ef36
p6085
V54ff180864e2e
p6086
sV54bfbc65e87fe
p6087
V54ff180063da3
p6088
sV54bfbc6a7d890
p6089
V54ff1801a3eeb
p6090
sV54bfbc80b2c28
p6091
V54ff180edb6eb
p6092
sV54bfbc71d751d
p6093
V54ff180399558
p6094
sV54bfbc85507e6
p6095
V54ff18088b078
p6096
sV54bfbc9074ec1
p6097
V54ff180b51ed7
p6098
sV54bfbc88b1826
p6099
V54ff18094f9f9
p6100
sV54bfbc795d045
p6101
V54ff180544020
p6102
sV54bfbc8119833
p6103
V54ff180727271
p6104
sV54bfbc77eff7b
p6105
V54ff1804bfaa8
p6106
sV54bfbc770e7a4
p6107
V54ff18048fc84
p6108
sV54bfbc6de454f
p6109
V54ff180245c6e
p6110
sV54bfbc6489215
p6111
V54ff180014969
p6112
sV54bfbc5f2a12a
p6113
V54ff17fe8c5dd
p6114
sV54bfbc9905182
p6115
V54ff180f0f1a7
p6116
sV54bfbc6fe9326
p6117
V54ff1802d163f
p6118
sV54bfbc7ef1aad
p6119
V54ff180edb2e6
p6120
sV54bfbc626d29e
p6121
V54ff17ffd670b
p6122
sV54bfbc7e00f0c
p6123
V54ff1806a8ee6
p6124
sV54bfbc6defea3
p6125
V54ff18021bb6c
p6126
sV54bfbc61cc16c
p6127
V54ff180e83da9
p6128
sV54bfbc5f536be
p6129
V54ff17fe29d7c
p6130
sV54bfbc8e592e1
p6131
V54ff180b1f6f8
p6132
sV54bfbc66b669e
p6133
V54ff18008c9b0
p6134
sV54bfbc7fa85ea
p6135
V54ff1806ef2ab
p6136
sV54bfbc5c5eb01
p6137
V54ff17fdae504
p6138
sV54bfbc66a97c2
p6139
V54ff1800649fa
p6140
sV54bfbc70919c7
p6141
V54ff1803023bb
p6142
sV54bfbc90ad888
p6143
V54ff180b7645c
p6144
sV54bfbc78ce7f9
p6145
V54ff18052af3d
p6146
sV54bfbc771a3be
p6147
V54ff1804be099
p6148
sV54bfbc86f1cf4
p6149
V54ff1808b20e3
p6150
sV54bfbc72af090
p6151
V54ff18039a786
p6152
sV54bfbc8141ec0
p6153
V54ff180752127
p6154
sV54bfbc8e4f2ff
p6155
V54ff180af1c77
p6156
sV54bfbc6e702ac
p6157
V54ff18026cba8
p6158
sV54bfbc7343ba2
p6159
V54ff1803efbee
p6160
sV54bfbc62e78a5
p6161
V54ff18003c0fd
p6162
sV54bfbc8791968
p6163
V54ff1809796c2
p6164
sV54bfbc8a96d15
p6165
V54ff180979c38
p6166
sV54bfbc966c7ea
p6167
V54ff180d3e5a5
p6168
sV54bfbc751d673
p6169
V54ff180422631
p6170
sV54bfbc65a5860
p6171
V54ff17ffd3dc9
p6172
sV54bfbc75f2637
p6173
V54ff180466297
p6174
sV54bfbc9238183
p6175
V54ff180c0df03
p6176
sV54bfbc96585dd
p6177
V54ff180d63d23
p6178
sV54bfbc7e827a2
p6179
V54ff18067a753
p6180
sV54bfbc919b1ae
p6181
V54ff180bc48cd
p6182
sV54bfbc92881e4
p6183
V54ff180c0eb04
p6184
sV54bfbc92131c3
p6185
V54ff180c0d284
p6186
sV54bfbc70a069c
p6187
V54ff1803017f0
p6188
sV54bfbc9017d32
p6189
V54ff180b21ee5
p6190
sV54bfbc9a53241
p6191
V54ff180e5a82a
p6192
sV54bfbc7dbc37a
p6193
V54ff180654f22
p6194
sV54bfbc79d4854
p6195
V54ff18057b90d
p6196
sV54bfbc8f780ab
p6197
V54ff180b20a9d
p6198
sV54bfbc9443090
p6199
V54ff180c75c37
p6200
sV54bfbc8bbcec3
p6201
V54ff18091b7ee
p6202
sV54bfbc7f0c6f0
p6203
V54ff1806ce688
p6204
sV54bfbc9186c0e
p6205
V54ff180bc2bb5
p6206
sV54bfbc5f46feb
p6207
V54ff17fe29a42
p6208
sV54bfbc5c7648a
p6209
V54ff17fdadcc1
p6210
sV54bfbc6068abb
p6211
V54ff17feaf5b2
p6212
sV54bfbc665c011
p6213
V54ff180063fa3
p6214
sV54bfbc8672975
p6215
V54ff180a30db7
p6216
sV54bfbc96804f9
p6217
V54ff180d3f03f
p6218
sV54bfbc7f56a06
p6219
V54ff1806eead1
p6220
sV54bfbc6b3866c
p6221
V54ff180175dd7
p6222
sV54bfbc7690278
p6223
V54ff18048f50b
p6224
sV54bfbc71b2f71
p6225
V54ff180364360
p6226
sV54bfbc6959785
p6227
V54ff1800bd9a9
p6228
sV54bfbc84968f1
p6229
V54ff180866abe
p6230
sV54bfbc61a886e
p6231
V54ff17ff49d49
p6232
sV54bfbc7394f7a
p6233
V54ff1804406db
p6234
sV54bfbc8291316
p6235
V54ff1807ddc9a
p6236
sV54bfbc80e8604
p6237
V54ff1807261f2
p6238
sV54bfbc6c6cb12
p6239
V54ff18011e0a4
p6240
sV54bfbc76cd13c
p6241
V54ff18048ff7c
p6242
sV54bfbc7cd0ea4
p6243
V54ff180654a24
p6244
sV54bfbc8f51629
p6245
V54ff180edc4d7
p6246
sV54bfbc86f3d9e
p6247
V54ff180a0d6e3
p6248
sV54bfbc7a12b53
p6249
V54ff18057c7f6
p6250
sV54bfbc92486da
p6251
V54ff180c0e449
p6252
sV54bfbc7b4cb40
p6253
V54ff1805f1691
p6254
sV54bfbc8578391
p6255
V54ff180842b07
p6256
sV54bfbc6c804cb
p6257
V54ff1801e9437
p6258
sV54bfbc936941c
p6259
V54ff180c738c8
p6260
sV54bfbc8f90070
p6261
V54ff180b217a8
p6262
sV54bfbc826ac9f
p6263
V54ff1807dcc8c
p6264
sV54bfbc796a9a7
p6265
V54ff18054539a
p6266
sV54bfbc82e3762
p6267
V54ff180818ad8
p6268
sV54bfbc8dba8a0
p6269
V54ff180ac8384
p6270
sV54bfbc78acbb7
p6271
V54ff180506d8c
p6272
sV54bfbc8d67e88
p6273
V54ff180a8541c
p6274
sV54bfbc7f161ea
p6275
V54ff1806ceaec
p6276
sV54bfbc78cca3e
p6277
V54ff18052aeae
p6278
sV54bfbc8cabb0e
p6279
V54ff1809d1cbc
p6280
sV54bfbc6a54192
p6281
V54ff18017657d
p6282
sV54bfbc90af8cb
p6283
V54ff180b764e9
p6284
sV54bfbc780ea48
p6285
V54ff1804c054f
p6286
sV54bfbc8a5ed78
p6287
V54ff1808df5f3
p6288
sV54bfbc7705662
p6289
V54ff1804bdf78
p6290
sV54bfbc84ba771
p6291
V54ff18081ac2b
p6292
sV54bfbc8353446
p6293
V54ff180842a38
p6294
sV54bfbc97a22f5
p6295
V54ff180da72e5
p6296
sV54bfbc5e2aee4
p6297
V54ff17fe293cd
p6298
sV54bfbc932ac7e
p6299
V54ff180c4352c
p6300
sV54bfbc817cdfc
p6301
V54ff180779bce
p6302
sV54bfbc7c0f2d6
p6303
V54ff18061e3e2
p6304
sV54bfbc5c23272
p6305
V54ff17fd7747b
p6306
sV54bfbc67356fb
p6307
V54ff18008ee96
p6308
sV54bfbc9106f30
p6309
V54ff180b508b8
p6310
sV54bfbc863329e
p6311
V54ff1808b106f
p6312
sV54bfbc75cbad2
p6313
V54ff180442136
p6314
sV54bfbc6a0cf6e
p6315
V54ff180175a12
p6316
sV54bfbc5f1e78b
p6317
V54ff17fe5c305
p6318
sV54bfbc5b62375
p6319
V54ff17fd53c6e
p6320
sV54bfbc708e029
p6321
V54ff18030221c
p6322
sV54bfbc906e8e5
p6323
V54ff180b51ae9
p6324
sV54bfbc6f45d2c
p6325
V54ff1802a3681
p6326
sV54bfbc8f720f4
p6327
V54ff180b2054a
p6328
sV54bfbc6738fe8
p6329
V54ff18008f210
p6330
sV54bfbc96e2803
p6331
V54ff180d6442e
p6332
sV54bfbc82b72ef
p6333
V54ff18081873a
p6334
sV54bfbc780957e
p6335
V54ff1804c0357
p6336
sV54bfbc854e7dc
p6337
V54ff18088b1db
p6338
sV54bfbc6b6cb13
p6339
V54ff1801c96d0
p6340
sV54bfbc657b40f
p6341
V54ff180e856e4
p6342
sV54bfbc5bc1840
p6343
V54ff17fd54732
p6344
sV54bfbc7b048f1
p6345
V54ff1805b30c0
p6346
sV54bfbc78b85c9
p6347
V54ff18052a858
p6348
sV54bfbc8944233
p6349
V54ff1808df057
p6350
sV54bfbc972dc39
p6351
V54ff180d6643c
p6352
sV54bfbc8e0385c
p6353
V54ff180aca00a
p6354
sV54bfbc78da8e1
p6355
V54ff18052b3c6
p6356
sV54bfbc829ee7d
p6357
V54ff1807de30b
p6358
sV54bfbc64761d4
p6359
V54ff17ff7117e
p6360
sV54bfbc5fea224
p6361
V54ff17feacdbf
p6362
sV54bfbc9a0fe47
p6363
V54ff180e34e15
p6364
sV54bfbc7b95415
p6365
V54ff18061920b
p6366
sV54bfbc9731be6
p6367
V54ff180d6674e
p6368
sV54bfbc6cf2d8a
p6369
V54ff18021cfe7
p6370
sV54bfbc772f967
p6371
V54ff18048fbd7
p6372
sV54bfbc6f552f0
p6373
V54ff1802a3f1d
p6374
sV54bfbc734d756
p6375
V54ff180421fcd
p6376
sV54bfbc63c4cfb
p6377
V54ff17ff4c6c2
p6378
sV54bfbc6157a42
p6379
V54ff17ff2820e
p6380
sV54bfbc895a3e8
p6381
V54ff180a31831
p6382
sV54bfbc5d1a0c4
p6383
V54ff17fde6501
p6384
sV54bfbc6c39910
p6385
V54ff18014c856
p6386
sV54bfbc8fa0d50
p6387
V54ff180b4ff49
p6388
sV54bfbc8ddad26
p6389
V54ff180ac8f89
p6390
sV54bfbc95bf50e
p6391
V54ff180d3f65f
p6392
sV54bfbc924d2da
p6393
V54ff180c0e5f7
p6394
sV54bfbc78b4459
p6395
V54ff18052a699
p6396
sV54bfbc8d74cf3
p6397
V54ff180a857b1
p6398
sV54bfbc6abd10e
p6399
V54ff1801a49ad
p6400
sV54bfbc8fec6db
p6401
V54ff180b767b6
p6402
sV54bfbc5e92885
p6403
V54ff17fe5af0f
p6404
sV54bfbc6f83008
p6405
V54ff1802a61b2
p6406
sV54bfbc892ccba
p6407
V54ff1808decda
p6408
sV54bfbc5bcde99
p6409
V54ff17fd74ec8
p6410
sV54bfbc78a4801
p6411
V54ff180506a83
p6412
sV54bfbc8703e1b
p6413
V54ff1808b22e0
p6414
sV54bfbc7e76d7c
p6415
V54ff18067c7c2
p6416
sV54bfbc5d540c5
p6417
V54ff17fe27e64
p6418
sV54bfbc60b160b
p6419
V54ff17feaf71b
p6420
sV54bfbc5bdc21a
p6421
V54ff17fd75799
p6422
sV54bfbc6278abe
p6423
V54ff17ffd690d
p6424
sV54bfbc712fb4e
p6425
V54ff180362817
p6426
sV54bfbc6493958
p6427
V54ff180014ffa
p6428
sV54bfbc8df404d
p6429
V54ff180edc313
p6430
sV54bfbc66048ef
p6431
V54ff1800632e8
p6432
sV54bfbc5eec92a
p6433
V54ff17fe5c732
p6434
sV54bfbc88ad18d
p6435
V54ff18094f2ec
p6436
sV54bfbc70b356e
p6437
V54ff180301d01
p6438
sV54bfbc7c84988
p6439
V54ff18065324e
p6440
sV54bfbc7fdb08a
p6441
V54ff180778e89
p6442
sV54bfbc613e9f9
p6443
V54ff17ff27904
p6444
sV54bfbc6654d10
p6445
V54ff18003d46e
p6446
sV54bfbc701bed6
p6447
V54ff1802d1ec9
p6448
sV54bfbc7095a9a
p6449
V54ff180302591
p6450
sV54bfbc7f0ec6f
p6451
V54ff1806ce799
p6452
sV54bfbc76c92c1
p6453
V54ff180eda409
p6454
sV54bfbc6e0d9a9
p6455
V54ff1802464ce
p6456
sV54bfbc624d92b
p6457
V54ff17ffd5141
p6458
sV54bfbc719157b
p6459
V54ff180362d7e
p6460
sV54bfbc68ccb04
p6461
V54ff18011c07d
p6462
sV54bfbc6b69157
p6463
V54ff1801ca8e9
p6464
sV54bfbc6f42f50
p6465
V54ff1802a353a
p6466
sV54bfbc932f8a1
p6467
V54ff180c4417a
p6468
sV54bfbc96a3d23
p6469
V54ff180d1779a
p6470
sV54bfbc6226f2f
p6471
V54ff180e84f17
p6472
sV54bfbc7c212a6
p6473
V54ff180652b62
p6474
sV54bfbc6015df9
p6475
V54ff17fe8cfbe
p6476
sV54bfbc8276da5
p6477
V54ff1807dd298
p6478
sV54bfbc62dc4f3
p6479
V54ff18003bea3
p6480
sV54bfbc8ba90c2
p6481
V54ff1809d2fa6
p6482
sV54bfbc6ba5bf8
p6483
V54ff1801cab42
p6484
sV54bfbc61a6b3d
p6485
V54ff17ff4a8f8
p6486
sV54bfbc6e9ce39
p6487
V54ff180eb06af
p6488
sV54bfbc63dc2d6
p6489
V54ff17ffd5903
p6490
sV54bfbc803a812
p6491
V54ff180752c9d
p6492
sV54bfbc6cc4404
p6493
V54ff1801e9dc2
p6494
sV54bfbc5b3b8da
p6495
V54ff17fd54846
p6496
sV54bfbc692feef
p6497
V54ff1800bbc23
p6498
sV54bfbc5f1b071
p6499
V54ff17fe5c1ac
p6500
sV54bfbc71a603f
p6501
V54ff180363d5d
p6502
sV54bfbc842cea0
p6503
V54ff1808439f2
p6504
sV54bfbc66d8564
p6505
V54ff18008db1b
p6506
sV54bfbc68ab4d1
p6507
V54ff180177396
p6508
sV54bfbc6d6748d
p6509
V54ff18026b8a1
p6510
sV54bfbc900d0ad
p6511
V54ff180b9b569
p6512
sV54bfbc6111783
p6513
V54ff17fee196d
p6514
sV54bfbc680bec3
p6515
V54ff1800e465b
p6516
sV54bfbc922ac4a
p6517
V54ff180c0dae8
p6518
sV54bfbc932850a
p6519
V54ff180c43999
p6520
sV54bfbc8daa563
p6521
V54ff180ac8885
p6522
sV54bfbc6f7f0aa
p6523
V54ff1802cfe9f
p6524
sV54bfbc72efb55
p6525
V54ff18039afa2
p6526
sV54bfbc7024798
p6527
V54ff1802f415f
p6528
sV54bfbc7573adc
p6529
V54ff1804673a8
p6530
sV54bfbc8ca29aa
p6531
V54ff1809d106b
p6532
sV54bfbc7f2edc1
p6533
V54ff1806ee069
p6534
sV54bfbc8b9a6a2
p6535
V54ff1809d3d3a
p6536
sV54bfbc70b1a08
p6537
V54ff180301ffc
p6538
sV54bfbc72a401b
p6539
V54ff18039a38b
p6540
sV54bfbc90cdc34
p6541
V54ff180b76b67
p6542
sV54bfbc6722f95
p6543
V54ff18008e3bd
p6544
sV54bfbc66a27fe
p6545
V54ff18006476f
p6546
sV54bfbc7197abe
p6547
V54ff1803633d6
p6548
sV54bfbc80b678b
p6549
V54ff180753d1d
p6550
sV54bfbc9796475
p6551
V54ff180da6b0a
p6552
sV54bfbc9a3ae4a
p6553
V54ff180e5ab99
p6554
sV54bfbc7d63a72
p6555
V54ff18067b006
p6556
sV54bfbc6e584ed
p6557
V54ff1802471bf
p6558
sV54bfbc647f503
p6559
V54ff17ffd6409
p6560
sV54bfbc5e0711d
p6561
V54ff180e5c96c
p6562
sV54bfbc64902cd
p6563
V54ff180014e09
p6564
sV54bfbc8026638
p6565
V54ff1806ef693
p6566
sV54bfbc5fb3a66
p6567
V54ff17fe8b6cb
p6568
sV54bfbc70094c3
p6569
V54ff1802d5eac
p6570
sV54bfbc8b06387
p6571
V54ff1809a18d1
p6572
sV54bfbc6eb193d
p6573
V54ff1802a2759
p6574
sV54bfbc680302f
p6575
V54ff1800be25f
p6576
sV54bfbc7ba8c6c
p6577
V54ff1806199a8
p6578
sV54bfbc62b401e
p6579
V54ff17ff720b2
p6580
sV54bfbc91926ca
p6581
V54ff180bc44fc
p6582
sV54bfbc97cca00
p6583
V54ff180da591b
p6584
sV54bfbc967024b
p6585
V54ff180d64706
p6586
sV54bfbc7418297
p6587
V54ff180442043
p6588
sV54bfbc873dcf0
p6589
V54ff18091ac79
p6590
sV54bfbc5c5288f
p6591
V54ff17fdad53b
p6592
sV54bfbc9198e71
p6593
V54ff180bc4800
p6594
sV54bfbc7f36f41
p6595
V54ff1806edf54
p6596
sV54bfbc83396e1
p6597
V54ff18081ab80
p6598
sV54bfbc8a40955
p6599
V54ff180978a91
p6600
sV54bfbc7a55021
p6601
V54ff18057d30a
p6602
sV54bfbc7ac6d49
p6603
V54ff1805b3257
p6604
sV54bfbc6ebb54c
p6605
V54ff1802a2d37
p6606
sV54bfbc67dc913
p6607
V54ff1800bc2c9
p6608
sV54bfbc6659e2d
p6609
V54ff180063e7e
p6610
sV54bfbc8a33e1d
p6611
V54ff1809a0c36
p6612
sV54bfbc75d6b5d
p6613
V54ff1803eee9b
p6614
sV54bfbc62733d7
p6615
V54ff18001613c
p6616
sV54bfbc95bb87e
p6617
V54ff180d178dd
p6618
sV54bfbc6bd7131
p6619
V54ff18014c1b7
p6620
sV54bfbc9674821
p6621
V54ff180d63af7
p6622
sV54bfbc97af92d
p6623
V54ff180da4c14
p6624
sV54bfbc8661c76
p6625
V54ff180a0b707
p6626
sV54bfbc74903a4
p6627
V54ff1803c5ac4
p6628
sV54bfbc6d5bbfe
p6629
V54ff1801eb791
p6630
sV54bfbc97c8a0a
p6631
V54ff180da5ba2
p6632
sV54bfbc92b9ef3
p6633
V54ff180c42a4e
p6634
sV54bfbc6fdd5f6
p6635
V54ff1802d0f65
p6636
sV54bfbc855d17c
p6637
V54ff18088a93c
p6638
sV54bfbc97b5707
p6639
V54ff180da4e9e
p6640
sV54bfbc6773392
p6641
V54ff1800e6689
p6642
sV54bfbc8b904a9
p6643
V54ff180a0ac90
p6644
sV54bfbc88820fe
p6645
V54ff180a0cb4f
p6646
sV54bfbc6c37e11
p6647
V54ff18014c09a
p6648
sV54bfbc934d5af
p6649
V54ff180cae918
p6650
sV54bfbc87542c0
p6651
V54ff180953a6a
p6652
sV54bfbc9a47359
p6653
V54ff180e5b184
p6654
sV54bfbc9240492
p6655
V54ff180c0e1b6
p6656
sV54bfbc74e7e9a
p6657
V54ff180422531
p6658
sV54bfbc6331873
p6659
V54ff17ff4c888
p6660
sV54bfbc768ba46
p6661
V54ff18048f1e2
p6662
sV54bfbc5d45c60
p6663
V54ff180e5c468
p6664
sV54bfbc6d70e4a
p6665
V54ff18021ba65
p6666
sV54bfbc7bda7ab
p6667
V54ff180619779
p6668
sV54bfbc781e6cb
p6669
V54ff180503fe7
p6670
sV54bfbc69ad385
p6671
V54ff1801753bc
p6672
sV54bfbc76e9503
p6673
V54ff1804bee75
p6674
sV54bfbc65a9a9d
p6675
V54ff17ffd3f67
p6676
sV54bfbc8f8216c
p6677
V54ff180b1fd6a
p6678
sV54bfbc9656a4b
p6679
V54ff180d63c53
p6680
sV54bfbc8a4c94b
p6681
V54ff180978c7a
p6682
sV54bfbc7f32e6f
p6683
V54ff1806ee3b0
p6684
sV54bfbc8bb7dfb
p6685
V54ff1809a2334
p6686
sV54bfbc8e47650
p6687
V54ff180af196a
p6688
sV54bfbc9842059
p6689
V54ff180dd1eef
p6690
sV54bfbc74e614b
p6691
V54ff1804224b7
p6692
sV54bfbc7296414
p6693
V54ff180399fde
p6694
sV54bfbc9931684
p6695
V54ff180e31ff1
p6696
sV54bfbc8a013b1
p6697
V54ff18094f4ee
p6698
sV54bfbc7843a39
p6699
V54ff180505627
p6700
sV54bfbc7824174
p6701
V54ff180504320
p6702
sV54bfbc7a8d963
p6703
V54ff18057d506
p6704
sV54bfbc8fcf6c3
p6705
V54ff180b511f3
p6706
sV54bfbc95e6b7a
p6707
V54ff180d3ea1c
p6708
sV54bfbc90dde48
p6709
V54ff180b9a149
p6710
sV54bfbc91a261d
p6711
V54ff180bc4d8d
p6712
sV54bfbc5bd7daa
p6713
V54ff17fd75567
p6714
sV54bfbc6d4f81e
p6715
V54ff18026be9a
p6716
sV54bfbc7538002
p6717
V54ff180464b05
p6718
sV54bfbc74e99f2
p6719
V54ff1804225a3
p6720
sV54bfbc8e49a38
p6721
V54ff180af1a41
p6722
sV54bfbc5ec1d8d
p6723
V54ff17fe8c345
p6724
sV54bfbc68bffed
p6725
V54ff1801a2b1e
p6726
sV54bfbc7b73fe0
p6727
V54ff1805f22c8
p6728
sV54bfbc5cf39fd
p6729
V54ff17fdafcf0
p6730
sV54bfbc7853bbe
p6731
V54ff180505332
p6732
sV54bfbc969d264
p6733
V54ff180d17244
p6734
sV54bfbc74eeab5
p6735
V54ff18042298b
p6736
sV54bfbc61484dc
p6737
V54ff17ffd6007
p6738
sV54bfbc6e7e3b5
p6739
V54ff18026d28d
p6740
sV54bfbc896f765
p6741
V54ff180918eeb
p6742
sV54bfbc5bbf83a
p6743
V54ff17fd740d3
p6744
sV54bfbc67ecf27
p6745
V54ff1800bd5c9
p6746
sV54bfbc64d6cf3
p6747
V54ff180015b61
p6748
sV54bfbc62a3899
p6749
V54ff180013d2e
p6750
sV54bfbc873ba10
p6751
V54ff18091a8e0
p6752
sV54bfbc7c4aeb7
p6753
V54ff180652f35
p6754
sV54bfbc7f4b317
p6755
V54ff1806cfdc5
p6756
sV54bfbc960058d
p6757
V54ff180d40156
p6758
sV54bfbc985d7bb
p6759
V54ff180dd28d2
p6760
sV54bfbc6c27d4b
p6761
V54ff1801750b3
p6762
sV54bfbc7484e65
p6763
V54ff180442b01
p6764
sV54bfbc5b8729c
p6765
V54ff17fd5439c
p6766
sV54bfbc8c23e92
p6767
V54ff1809d44a8
p6768
sV54bfbc7ddd881
p6769
V54ff1806a824c
p6770
sV54bfbc906c565
p6771
V54ff180b4fba4
p6772
sV54bfbc5eba9ef
p6773
V54ff17fe8c105
p6774
sV54bfbc70187d0
p6775
V54ff1802d16f9
p6776
sV54bfbc65e287d
p6777
V54ff180062424
p6778
sV54bfbc8c21fc6
p6779
V54ff1809d2242
p6780
sV54bfbc7d1d51b
p6781
V54ff1806a8076
p6782
sV54bfbc72aa9cc
p6783
V54ff18039a5d9
p6784
sV54bfbc68d3e78
p6785
V54ff180eb03d5
p6786
sV54bfbc6e99fbb
p6787
V54ff18026dcf6
p6788
sV54bfbc8e57850
p6789
V54ff180af2fc4
p6790
sV54bfbc7061f2d
p6791
V54ff180300271
p6792
sV54bfbc96b2f97
p6793
V54ff180d64526
p6794
sV54bfbc87bd15b
p6795
V54ff180a32bd1
p6796
sV54bfbc7068d62
p6797
V54ff180300a89
p6798
sV54bfbc63f1472
p6799
V54ff17ffd6575
p6800
sV54bfbc7c27830
p6801
V54ff18061e8ee
p6802
sV54bfbc870a0da
p6803
V54ff1808b148c
p6804
sV54bfbc8676593
p6805
V54ff18094dd50
p6806
sV54bfbc7486bf1
p6807
V54ff180eb279d
p6808
sV54bfbc6f377a2
p6809
V54ff1802a2ff6
p6810
sV54bfbc7671aa8
p6811
V54ff18048e572
p6812
sV54bfbc887860c
p6813
V54ff180a0cf87
p6814
sV54bfbc6d9d10a
p6815
V54ff18021cb53
p6816
sV54bfbc5e74cf6
p6817
V54ff17fe5b348
p6818
sV54bfbc943435c
p6819
V54ff180c7523e
p6820
sV54bfbc5f263ba
p6821
V54ff17fe5c59e
p6822
sV54bfbc79cab21
p6823
V54ff18057b3c5
p6824
sV54bfbc7cba8b1
p6825
V54ff1806535ed
p6826
sV54bfbc91dfe65
p6827
V54ff180bc4cb2
p6828
sV54bfbc87d4912
p6829
V54ff180a31d8e
p6830
sV54bfbc8c6ac92
p6831
V54ff18097ab2f
p6832
sV54bfbc6d560f6
p6833
V54ff180246352
p6834
sV54bfbc6a6e19e
p6835
V54ff1801a36a9
p6836
sV54bfbc865f77e
p6837
V54ff180a0b83e
p6838
sV54bfbc8332e79
p6839
V54ff18081a83e
p6840
sV54bfbc806783c
p6841
V54ff18072574f
p6842
sV54bfbc967737b
p6843
V54ff180d3ff54
p6844
sV54bfbc8a42b73
p6845
V54ff180978b89
p6846
sV54bfbc6dda85d
p6847
V54ff180245871
p6848
sV54bfbc7c39acf
p6849
V54ff1806546ae
p6850
sV54bfbc968a63a
p6851
V54ff180d3eda4
p6852
sV54bfbc6264106
p6853
V54ff180e858b9
p6854
sV54bfbc75e9059
p6855
V54ff1803ef87e
p6856
sV54bfbc6fc901e
p6857
V54ff1802d0709
p6858
sV54bfbc966699b
p6859
V54ff180d3f72e
p6860
sV54bfbc5e84a8d
p6861
V54ff17fe5b81c
p6862
sV54bfbc5c1276f
p6863
V54ff17fd76b62
p6864
sV54bfbc74a2807
p6865
V54ff180422907
p6866
sV54bfbc87c85ef
p6867
V54ff180a32835
p6868
sV54bfbc7b99d6d
p6869
V54ff180619484
p6870
sV54bfbc75690f4
p6871
V54ff1803f00bf
p6872
sV54bfbc7fabd59
p6873
V54ff1806ef4dc
p6874
sV54bfbc87bedec
p6875
V54ff180a32b2b
p6876
sV54bfbc888845d
p6877
V54ff18094e07b
p6878
sV54bfbc6412900
p6879
V54ff17ff4b2ea
p6880
sV54bfbc6de8695
p6881
V54ff1801eb436
p6882
sV54bfbc6025405
p6883
V54ff17feae190
p6884
sV54bfbc849b2ad
p6885
V54ff180865d1b
p6886
sV54bfbc8ee759d
p6887
V54ff180edc78f
p6888
sV54bfbc5de5843
p6889
V54ff17fde895a
p6890
sV54bfbc73a5b96
p6891
V54ff1804411ec
p6892
sV54bfbc5e63522
p6893
V54ff17fe5ab68
p6894
sV54bfbc685bda9
p6895
V54ff1801caf7e
p6896
sV54bfbc8f57579
p6897
V54ff180af2c97
p6898
sV54bfbc5f13965
p6899
V54ff17fe5beaa
p6900
sV54bfbc5e24ea1
p6901
V54ff17fe29131
p6902
sV54bfbc6550535
p6903
V54ff17ffa4d42
p6904
sV54bfbc92b41bc
p6905
V54ff180c4273f
p6906
sV54bfbc637f2d9
p6907
V54ff180e82e66
p6908
sV54bfbc9452631
p6909
V54ff180cad85d
p6910
sV54bfbc6e1c806
p6911
V54ff180246c34
p6912
sV54bfbc7b79a95
p6913
V54ff1806185a9
p6914
sV54bfbc8d106f6
p6915
V54ff1809d423e
p6916
sV54bfbc7ba64b9
p6917
V54ff180619c6c
p6918
sV54bfbc8bab063
p6919
V54ff1809d3e48
p6920
sV54bfbc934f672
p6921
V54ff180cae7db
p6922
sV54bfbc8ba0ba3
p6923
V54ff1809d3a05
p6924
sV54bfbc6a13c88
p6925
V54ff180176351
p6926
sV54bfbc9294372
p6927
V54ff180c0eef7
p6928
sV54bfbc624585b
p6929
V54ff17ffd4af0
p6930
sV54bfbc97051e8
p6931
V54ff180d1753a
p6932
sV54bfbc6644ade
p6933
V54ff180062d2c
p6934
sV54bfbc9422a06
p6935
V54ff180c7a7c8
p6936
sV54bfbc7283cc3
p6937
V54ff1803998a9
p6938
sV54bfbc83926f1
p6939
V54ff18084339b
p6940
sV54bfbc8744133
p6941
V54ff18091b6b0
p6942
sV54bfbc831e416
p6943
V54ff180819e7c
p6944
sV54bfbc6b51190
p6945
V54ff1801a32b6
p6946
sV54bfbc6bebcb5
p6947
V54ff18014ca00
p6948
sV54bfbc5cb969f
p6949
V54ff17fdaf772
p6950
sV54bfbc9833bf6
p6951
V54ff180dd17c7
p6952
sV54bfbc92d46ac
p6953
V54ff180c43694
p6954
sV54bfbc5bc7476
p6955
V54ff17fd74a9f
p6956
sV54bfbc6760202
p6957
V54ff1800e72ed
p6958
sV54bfbc5de77c0
p6959
V54ff17fde8b31
p6960
sV54bfbc8d52ed0
p6961
V54ff180a57762
p6962
sV54bfbc632f9d7
p6963
V54ff17ff4bca3
p6964
sV54bfbc900953c
p6965
V54ff180b9a8fc
p6966
sV54bfbc61edb8c
p6967
V54ff180e84be7
p6968
sV54bfbc9725409
p6969
V54ff180d65dd0
p6970
sV54bfbc61336e5
p6971
V54ff17fee2564
p6972
sV54bfbc7b7d6c7
p6973
V54ff180618978
p6974
sV54bfbc627e320
p6975
V54ff17ffd6b9a
p6976
sV54bfbc7ebbc72
p6977
V54ff1806cf6a3
p6978
sV54bfbc65d5c64
p6979
V54ff1800634ac
p6980
sV54bfbc7f1a613
p6981
V54ff1806cecd4
p6982
sV54bfbc765cf83
p6983
V54ff18048d96f
p6984
sV54bfbc8573c83
p6985
V54ff180841e37
p6986
sV54bfbc64972fd
p6987
V54ff180015466
p6988
sV54bfbc5bcb298
p6989
V54ff17fd74c7f
p6990
sV54bfbc6b52d1c
p6991
V54ff1801a3330
p6992
sV54bfbc5bc9367
p6993
V54ff17fd74b84
p6994
sV54bfbc973bce3
p6995
V54ff180da46a1
p6996
sV54bfbc75ac5ce
p6997
V54ff180465814
p6998
sV54bfbc86ec070
p6999
V54ff1808b1c22
p7000
sV54bfbc5c89892
p7001
V54ff17fdacf05
p7002
sV54bfbc634e74b
p7003
V54ff17ff26a32
p7004
sV54bfbc5fbde44
p7005
V54ff17fe8cdf0
p7006
sV54bfbc71933af
p7007
V54ff180363800
p7008
sV54bfbc6e01e21
p7009
V54ff18021d669
p7010
sV54bfbc843ca61
p7011
V54ff1808645c6
p7012
sV54bfbc6e76455
p7013
V54ff18026cc8e
p7014
sV54bfbc894fc76
p7015
V54ff180a0caa1
p7016
sV54bfbc7b843c3
p7017
V54ff180618c1b
p7018
sV54bfbc95cc1f0
p7019
V54ff180d18066
p7020
sV54bfbc857154e
p7021
V54ff180841d36
p7022
sV54bfbc68c63fd
p7023
V54ff1801a2f22
p7024
sV54bfbc8129e0f
p7025
V54ff180727aef
p7026
sV54bfbc672bb8e
p7027
V54ff18008ece9
p7028
sV54bfbc87b030b
p7029
V54ff180979ba7
p7030
sV54bfbc63d4099
p7031
V54ff18003bc8c
p7032
sV54bfbc68d027f
p7033
V54ff18011c1fc
p7034
sV54bfbc792a92e
p7035
V54ff180542484
p7036
sV54bfbc89a7659
p7037
V54ff180a0c083
p7038
sV54bfbc7b567a4
p7039
V54ff1805f12ce
p7040
sV54bfbc8ca4957
p7041
V54ff1809d18e6
p7042
sV54bfbc752e7a6
p7043
V54ff180423214
p7044
sV54bfbc9a17c3a
p7045
V54ff180e5a58d
p7046
sV54bfbc7f0339f
p7047
V54ff1806ce29c
p7048
sV54bfbc6f69c4a
p7049
V54ff1802a46cf
p7050
sV54bfbc74a0868
p7051
V54ff18042242b
p7052
sV54bfbc95dd023
p7053
V54ff180d3e4ff
p7054
sV54bfbc88319dc
p7055
V54ff180a0d2a8
p7056
sV54bfbc76d1832
p7057
V54ff180490068
p7058
sV54bfbc917d2b5
p7059
V54ff180bc38e3
p7060
sV54bfbc747586b
p7061
V54ff180441adb
p7062
sV54bfbc6d157ab
p7063
V54ff180246018
p7064
sV54bfbc95c1670
p7065
V54ff180d17baa
p7066
sV54bfbc6727101
p7067
V54ff18008ebe5
p7068
sV54bfbc6bcd5a7
p7069
V54ff18014bb88
p7070
sV54bfbc68db38c
p7071
V54ff1801c9ff9
p7072
sV54bfbc6e564f3
p7073
V54ff18024705a
p7074
sV54bfbc938f9d7
p7075
V54ff180c447d1
p7076
sV54bfbc85e02de
p7077
V54ff1808afab6
p7078
sV54bfbc5be7265
p7079
V54ff17fd75e1e
p7080
sV54bfbc6a8c8d9
p7081
V54ff1801a43bd
p7082
sV54bfbc5cb73a7
p7083
V54ff17fdaf3c2
p7084
sV54bfbc92b60ef
p7085
V54ff180c4281f
p7086
sV54bfbc90e9648
p7087
V54ff180b9adff
p7088
sV54bfbc5d1c92d
p7089
V54ff17fde68dd
p7090
sV54bfbc929682b
p7091
V54ff180c0d875
p7092
sV54bfbc8cb3f58
p7093
V54ff180edbdab
p7094
sV54bfbc98e8632
p7095
V54ff180e10dd4
p7096
sV54bfbc6f76ff3
p7097
V54ff1802a4e68
p7098
sV54bfbc8e60ac0
p7099
V54ff180ac9da0
p7100
sV54bfbc8f3d683
p7101
V54ff180af23d7
p7102
sV54bfbc7b8fa37
p7103
V54ff1806190d4
p7104
sV54bfbc70169ae
p7105
V54ff1802d0dea
p7106
sV54bfbc6b34724
p7107
V54ff1801c9367
p7108
sV54bfbc9739a55
p7109
V54ff180d66bca
p7110
sV54bfbc746d731
p7111
V54ff1803f0302
p7112
sV54bfbc600418f
p7113
V54ff17fead65f
p7114
sV54bfbc5f3a355
p7115
V54ff17fe5bc21
p7116
sV54bfbc953243a
p7117
V54ff180f0e85c
p7118
sV54bfbc772b4e4
p7119
V54ff18048f84a
p7120
sV54bfbc7cf20b2
p7121
V54ff1806553c7
p7122
sV54bfbc7292b64
p7123
V54ff180399eaf
p7124
sV54bfbc5d5a8fa
p7125
V54ff17fde780b
p7126
sV54bfbc8197cc7
p7127
V54ff18077aab7
p7128
sV54bfbc7cd840f
p7129
V54ff18067c868
p7130
sV54bfbc882f5c7
p7131
V54ff180a0d386
p7132
sV54bfbc64dca12
p7133
V54ff180015d88
p7134
sV54bfbc938667c
p7135
V54ff180c44bbd
p7136
sV54bfbc788891a
p7137
V54ff180505e78
p7138
sV54bfbc6369dbe
p7139
V54ff180e5d5ea
p7140
sV54bfbc8fee654
p7141
V54ff180b76847
p7142
sV54bfbc66ab470
p7143
V54ff180064ad3
p7144
sV54bfbc985b8ba
p7145
V54ff180dd2820
p7146
sV54bfbc660ade5
p7147
V54ff180062e2a
p7148
sV54bfbc6c62327
p7149
V54ff18011dcb4
p7150
sV54bfbc796178b
p7151
V54ff18054456a
p7152
sV54bfbc7c04b99
p7153
V54ff18061a602
p7154
sV54bfbc5e617de
p7155
V54ff17fe5aaef
p7156
sV54bfbc764dd92
p7157
V54ff1804675bc
p7158
sV54bfbc6be63c6
p7159
V54ff18014c6cb
p7160
sV54bfbc97486f2
p7161
V54ff180da70e4
p7162
sV54bfbc8f16ba1
p7163
V54ff180af233d
p7164
sV54bfbc66cec98
p7165
V54ff18008d6a7
p7166
sV54bfbc6115b20
p7167
V54ff17fee1b7f
p7168
sV54bfbc902404f
p7169
V54ff180b4f59f
p7170
sV54bfbc8466714
p7171
V54ff180866543
p7172
sV54bfbc61d7506
p7173
V54ff17ffa2590
p7174
sV54bfbc872f8a3
p7175
V54ff1809196b3
p7176
sV54bfbc91830d1
p7177
V54ff180bc3bb2
p7178
sV54bfbc8108d35
p7179
V54ff180726aa7
p7180
sV54bfbc627163d
p7181
V54ff17ff4b034
p7182
sV54bfbc954fb14
p7183
V54ff180ce423a
p7184
sV54bfbc8630fa8
p7185
V54ff1808b0f06
p7186
sV54bfbc79bf1f4
p7187
V54ff18057acc3
p7188
sV54bfbc892eb41
p7189
V54ff180edbf9b
p7190
sV54bfbc846d63e
p7191
V54ff1808669d4
p7192
sV54bfbc90e5798
p7193
V54ff180b9aca5
p7194
sV54bfbc6d47bea
p7195
V54ff180246bb7
p7196
sV54bfbc7c11e01
p7197
V54ff18061e4c4
p7198
sV54bfbc71455c0
p7199
V54ff180334623
p7200
sV54bfbc6e1878f
p7201
V54ff1802462b6
p7202
sV54bfbc6342878
p7203
V54ff17ff71d5a
p7204
sV54bfbc7294674
p7205
V54ff180399f39
p7206
sV54bfbc8071134
p7207
V54ff180752ffb
p7208
sV54bfbc6fd758e
p7209
V54ff1802d0c57
p7210
sV54bfbc62a1c4b
p7211
V54ff180013bfe
p7212
sV54bfbc984a578
p7213
V54ff180dd21d9
p7214
sV54bfbc9693f8b
p7215
V54ff180d16697
p7216
sV54bfbc8f4f66b
p7217
V54ff180af2a2b
p7218
sV54bfbc7571805
p7219
V54ff180467252
p7220
sV54bfbc98a4c98
p7221
V54ff180e10062
p7222
sV54bfbc8ea888e
p7223
V54ff180af3783
p7224
sV54bfbc8302207
p7225
V54ff180819325
p7226
sV54bfbc630bdc8
p7227
V54ff17ff4ba7b
p7228
sV54bfbc7b657e5
p7229
V54ff1805f1b96
p7230
sV54bfbc83207df
p7231
V54ff1808430ce
p7232
sV54bfbc8759e26
p7233
V54ff180979151
p7234
sV54bfbc5b29458
p7235
V54ff17fd539c5
p7236
sV54bfbc6534ba9
p7237
V54ff17ff4ab31
p7238
sV54bfbc6d5f8ce
p7239
V54ff1802466c9
p7240
sV54bfbc74556de
p7241
V54ff1803f0701
p7242
sV54bfbc983c194
p7243
V54ff180dd1d99
p7244
sV54bfbc8ff0c21
p7245
V54ff180b768ef
p7246
sV54bfbc90cfab8
p7247
V54ff180b76bfa
p7248
sV54bfbc7aaaccf
p7249
V54ff18057dc81
p7250
sV54bfbc7949aee
p7251
V54ff18054347d
p7252
sV54bfbc66aeccc
p7253
V54ff180064c80
p7254
sV54bfbc685539b
p7255
V54ff1800e53ea
p7256
sV54bfbc7b3a0b2
p7257
V54ff1805b2893
p7258
sV54bfbc63ba38f
p7259
V54ff17ff4c1e9
p7260
sV54bfbc9005850
p7261
V54ff180b99d8c
p7262
sV54bfbc5e01353
p7263
V54ff17fe26f67
p7264
sV54bfbc844ad5e
p7265
V54ff180865a74
p7266
sV54bfbc814b445
p7267
V54ff18077a354
p7268
sV54bfbc9828fe0
p7269
V54ff180dd1394
p7270
sV54bfbc7467abe
p7271
V54ff1803c56e1
p7272
sV54bfbc90c1426
p7273
V54ff180b50e1b
p7274
sV54bfbc61b060a
p7275
V54ff17ff71076
p7276
sV54bfbc65c4fc2
p7277
V54ff18003d3e1
p7278
sV54bfbc61aa621
p7279
V54ff17ff49e61
p7280
sV54bfbc9791f63
p7281
V54ff180da6897
p7282
sV54bfbc6b367e5
p7283
V54ff1801c9438
p7284
sV54bfbc75d32d9
p7285
V54ff1804651ca
p7286
sV54bfbc8182896
p7287
V54ff180779b21
p7288
sV54bfbc62b82fd
p7289
V54ff17ff723a4
p7290
sV54bfbc606e928
p7291
V54ff17feafef7
p7292
sV54bfbc87318b0
p7293
V54ff1809197ad
p7294
sV54bfbc826d342
p7295
V54ff1807dcdad
p7296
sV54bfbc612cd2d
p7297
V54ff17fee235e
p7298
sV54bfbc89b554c
p7299
V54ff18091a2ab
p7300
sV54bfbc8caf90d
p7301
V54ff1809d211a
p7302
sV54bfbc7e99408
p7303
V54ff1806a957b
p7304
sV54bfbc8598b77
p7305
V54ff1808af308
p7306
sV54bfbc7609534
p7307
V54ff180465b6b
p7308
sV54bfbc9426073
p7309
V54ff180c7a8c9
p7310
sV54bfbc7ad3d89
p7311
V54ff1805b3887
p7312
sV54bfbc7851f4b
p7313
V54ff180504ced
p7314
sV54bfbc6663fb7
p7315
V54ff18006467a
p7316
sV54bfbc5cc78d4
p7317
V54ff17fde5e25
p7318
sV54bfbc5f9070a
p7319
V54ff17fe2a171
p7320
sV54bfbc6ab8b59
p7321
V54ff1801a47ee
p7322
sV54bfbc8c83597
p7323
V54ff1809d2557
p7324
sV54bfbc63d5f97
p7325
V54ff180eafada
p7326
sV54bfbc7941949
p7327
V54ff18054302b
p7328
sV54bfbc8e10d7e
p7329
V54ff180af1345
p7330
sV54bfbc6a914d6
p7331
V54ff1801a456e
p7332
sV54bfbc8a3a969
p7333
V54ff1809787bf
p7334
sV54bfbc7b4560f
p7335
V54ff1805b3319
p7336
sV54bfbc918df2a
p7337
V54ff180bc436f
p7338
sV54bfbc6f9910e
p7339
V54ff1802d0447
p7340
sV54bfbc5e791aa
p7341
V54ff17fe5b425
p7342
sV54bfbc60539a4
p7343
V54ff17feadc90
p7344
sV54bfbc6584a9d
p7345
V54ff17ffaa73d
p7346
sV54bfbc8061f73
p7347
V54ff180726126
p7348
sV54bfbc62dfeb5
p7349
V54ff18003bfd0
p7350
sV54bfbc8dd671e
p7351
V54ff180ac939b
p7352
sV54bfbc73a9e32
p7353
V54ff180eb2389
p7354
sV54bfbc7f90d29
p7355
V54ff180753b73
p7356
sV54bfbc7f4f1da
p7357
V54ff1806ee467
p7358
sV54bfbc692a5a0
p7359
V54ff1800bba1e
p7360
sV54bfbc61e3f01
p7361
V54ff17ffa2e9e
p7362
sV54bfbc8dd8aea
p7363
V54ff180ac94c3
p7364
sV54bfbc864c351
p7365
V54ff1808b1dff
p7366
sV54bfbc7ba0f06
p7367
V54ff1806196e2
p7368
sV54bfbc882d6e2
p7369
V54ff180a0d474
p7370
sV54bfbc6c6087f
p7371
V54ff18011dc2e
p7372
sV54bfbc928aa1a
p7373
V54ff180c0ebb5
p7374
sV54bfbc829333f
p7375
V54ff1807ddd83
p7376
sV54bfbc91e93a4
p7377
V54ff180bc52f1
p7378
sV54bfbc8a1ee1f
p7379
V54ff1809a1376
p7380
sV54bfbc6c2520b
p7381
V54ff180174f71
p7382
sV54bfbc874a5b8
p7383
V54ff18094dc5d
p7384
sV54bfbc99ef4c7
p7385
V54ff180e348fa
p7386
sV54bfbc845d10c
p7387
V54ff18086645b
p7388
sV54bfbc67a7396
p7389
V54ff1800e6db2
p7390
sV54bfbc8ac8370
p7391
V54ff18097a3c2
p7392
sV54bfbc8f01699
p7393
V54ff180b1f355
p7394
sV54bfbc63718bf
p7395
V54ff180e5dab6
p7396
sV54bfbc6a0368b
p7397
V54ff1800e52bb
p7398
sV54bfbc97dbeb8
p7399
V54ff180dd0a88
p7400
sV54bfbc7088cdb
p7401
V54ff180332bc4
p7402
sV54bfbc654e82b
p7403
V54ff180014896
p7404
sV54bfbc8aca7c5
p7405
V54ff18097a597
p7406
sV54bfbc9925c61
p7407
V54ff180e11b72
p7408
sV54bfbc6de62d5
p7409
V54ff180245df2
p7410
sV54bfbc9170ff4
p7411
V54ff180bc304c
p7412
sV54bfbc62e3d48
p7413
V54ff180e86184
p7414
sV54bfbc6b2eb01
p7415
V54ff1801c90cc
p7416
sV54bfbc7123e9d
p7417
V54ff180333b88
p7418
sV54bfbc6d98e95
p7419
V54ff18021c026
p7420
sV54bfbc73b4169
p7421
V54ff18046667a
p7422
sV54bfbc6dd2e71
p7423
V54ff1802456bb
p7424
sV54bfbc88d6780
p7425
V54ff1808debea
p7426
sV54bfbc5cbf738
p7427
V54ff17fde5691
p7428
sV54bfbc6243050
p7429
V54ff17ffd4904
p7430
sV54bfbc9a05b9c
p7431
V54ff180e34f62
p7432
sV54bfbc83de50a
p7433
V54ff180841c7b
p7434
sV54bfbc5f2bb9c
p7435
V54ff17fe8c69d
p7436
sV54bfbc8dac684
p7437
V54ff180ac79e5
p7438
sV54bfbc7f38e44
p7439
V54ff1806ee14b
p7440
sV54bfbc6f6c313
p7441
V54ff1802a4829
p7442
sV54bfbc7926d23
p7443
V54ff18052bb03
p7444
sV54bfbc97bc96a
p7445
V54ff180da51b1
p7446
sV54bfbc7db4fd7
p7447
V54ff18067c5dd
p7448
sV54bfbc9604856
p7449
V54ff180d40258
p7450
sV54bfbc75b7a2a
p7451
V54ff180422e6a
p7452
sV54bfbc75dab45
p7453
V54ff1803ef129
p7454
sV54bfbc6d44434
p7455
V54ff1802460b0
p7456
sV54bfbc84d4a50
p7457
V54ff1808652fd
p7458
sV54bfbc94a5fa4
p7459
V54ff180caffe7
p7460
sV54bfbc8da5cf1
p7461
V54ff180ac76f9
p7462
sV54bfbc67e5c8c
p7463
V54ff1800bcfb5
p7464
sV54bfbc754367a
p7465
V54ff180465125
p7466
sV54bfbc5bc5649
p7467
V54ff17fd53601
p7468
sV54bfbc62b63ec
p7469
V54ff17ff72306
p7470
sV54bfbc5e151a3
p7471
V54ff17fe285a3
p7472
sV54bfbc6153ee5
p7473
V54ff17ff2813c
p7474
sV54bfbc8c9838a
p7475
V54ff1809d1760
p7476
sV54bfbc79d6fe5
p7477
V54ff18057ba76
p7478
sV54bfbc9156fc1
p7479
V54ff180b9c0e2
p7480
sV54bfbc6437be3
p7481
V54ff17ff4b67d
p7482
sV54bfbc6bc43d5
p7483
V54ff18014b7b7
p7484
sV54bfbc6d13811
p7485
V54ff180245f6e
p7486
sV54bfbc92e857d
p7487
V54ff180c73dfc
p7488
sV54bfbc5f15395
p7489
V54ff180e5d200
p7490
sV54bfbc9000c12
p7491
V54ff180b76a1f
p7492
sV54bfbc953e2ee
p7493
V54ff180cb0b72
p7494
sV54bfbc8d727a9
p7495
V54ff180a85852
p7496
sV54bfbc601b515
p7497
V54ff17fe8d6f7
p7498
sV54bfbc73060df
p7499
V54ff1803c3e4c
p7500
sV54bfbc78b2417
p7501
V54ff18052a605
p7502
sV54bfbc69342d9
p7503
V54ff1800bbe2d
p7504
sV54bfbc97ceb4c
p7505
V54ff180da57f6
p7506
sV54bfbc6d80047
p7507
V54ff1801ea84b
p7508
sV54bfbc82f209b
p7509
V54ff180819128
p7510
sV54bfbc8f04fdc
p7511
V54ff180b1f40f
p7512
sV54bfbc7d26212
p7513
V54ff18067bd22
p7514
sV54bfbc61db3d4
p7515
V54ff17ffa2837
p7516
sV54bfbc8837ac1
p7517
V54ff180a0d05e
p7518
sV54bfbc6b9664f
p7519
V54ff1801c9977
p7520
sV54bfbc6d6eceb
p7521
V54ff18021b3a4
p7522
sV54bfbc99cccac
p7523
V54ff180e33ec7
p7524
sV54bfbc6a674fb
p7525
V54ff1801a350e
p7526
sV54bfbc8552881
p7527
V54ff18088afa6
p7528
sV54bfbc749aa17
p7529
V54ff18042217d
p7530
sV54bfbc73140e3
p7531
V54ff1803c45a1
p7532
sV54bfbc755e468
p7533
V54ff1804219a4
p7534
sV54bfbc93c5998
p7535
V54ff180c7318a
p7536
sV54bfbc6ebf927
p7537
V54ff1802a2ee5
p7538
sV54bfbc7642c04
p7539
V54ff1803effd3
p7540
sV54bfbc5b8354b
p7541
V54ff17fd5418c
p7542
sV54bfbc5e94a29
p7543
V54ff17fe5af9a
p7544
sV54bfbc97c47aa
p7545
V54ff180da5481
p7546
sV54bfbc6747dd7
p7547
V54ff18011cd52
p7548
sV54bfbc7d23f5a
p7549
V54ff18067acd7
p7550
sV54bfbc73d294f
p7551
V54ff1804412f6
p7552
sV54bfbc98ec2ca
p7553
V54ff180e10948
p7554
sV54bfbc99b7e4e
p7555
V54ff180e32f1f
p7556
sV54bfbc9903729
p7557
V54ff180e115d4
p7558
sV54bfbc5df0250
p7559
V54ff17fde8da7
p7560
sV54bfbc91a46f7
p7561
V54ff180bc4e46
p7562
sV54bfbc7be87b5
p7563
V54ff180619a49
p7564
sV54bfbc671750e
p7565
V54ff18008e062
p7566
sV54bfbc954b59e
p7567
V54ff180ce3d3e
p7568
sV54bfbc8458f0b
p7569
V54ff1808662b0
p7570
sV54bfbc790fbd0
p7571
V54ff18052b861
p7572
sV54bfbc5bc3777
p7573
V54ff17fd748e4
p7574
sV54bfbc907e067
p7575
V54ff180b76178
p7576
sV54bfbc5b7222d
p7577
V54ff17fd538a5
p7578
sV54bfbc8d48b71
p7579
V54ff180a5785e
p7580
sV54bfbc712b880
p7581
V54ff180333cef
p7582
sV54bfbc6bdbaaa
p7583
V54ff18014c347
p7584
sV54bfbc72a01df
p7585
V54ff18039a2ee
p7586
sV54bfbc83226c7
p7587
V54ff18081a775
p7588
sV54bfbc8195f1c
p7589
V54ff18077a9a9
p7590
sV54bfbc8bbf1aa
p7591
V54ff18091b8b6
p7592
sV54bfbc72f3bdb
p7593
V54ff1803c3ad8
p7594
sV54bfbc8d2db30
p7595
V54ff180a570a3
p7596
sV54bfbc6d064d8
p7597
V54ff18021d333
p7598
sV54bfbc856aa3e
p7599
V54ff18088a32a
p7600
sV54bfbc9456e70
p7601
V54ff180cb05fb
p7602
sV54bfbc5d238fa
p7603
V54ff17fde6da6
p7604
sV54bfbc8647f02
p7605
V54ff18091a43c
p7606
sV54bfbc843a011
p7607
V54ff180843dc7
p7608
sV54bfbc619d02c
p7609
V54ff17ff28f7b
p7610
sV54bfbc734bd66
p7611
V54ff180421f56
p7612
sV54bfbc76e1f42
p7613
V54ff1804be927
p7614
sV54bfbc9540414
p7615
V54ff180cb0c3b
p7616
sV54bfbc7fbe695
p7617
V54ff1807259fa
p7618
sV54bfbc6409be3
p7619
V54ff17ff4a680
p7620
sV54bfbc7802245
p7621
V54ff1804bfed9
p7622
sV54bfbc6ea42f8
p7623
V54ff18026df7c
p7624
sV54bfbc5b37501
p7625
V54ff17fd54316
p7626
sV54bfbc65b9a1d
p7627
V54ff18003d0f2
p7628
sV54bfbc6e09ae1
p7629
V54ff1801eb523
p7630
sV54bfbc606a9b6
p7631
V54ff17feafcd1
p7632
sV54bfbc71024b3
p7633
V54ff180333392
p7634
sV54bfbc7c50e37
p7635
V54ff18065315c
p7636
sV54bfbc7db7c40
p7637
V54ff1806a6e4c
p7638
sV54bfbc8591e2d
p7639
V54ff1808aef7b
p7640
sV54bfbc6c29c2b
p7641
V54ff1801e90d7
p7642
sV54bfbc955d6b0
p7643
V54ff180ce4861
p7644
sV54bfbc90cbcf3
p7645
V54ff180b760ea
p7646
sV54bfbc7beaabc
p7647
V54ff180619d8e
p7648
sV54bfbc8f93e44
p7649
V54ff180b21965
p7650
sV54bfbc643b958
p7651
V54ff17ff4b80c
p7652
sV54bfbc7d766f9
p7653
V54ff18067b826
p7654
sV54bfbc7ea7001
p7655
V54ff1806cd669
p7656
sV54bfbc6d4216b
p7657
V54ff180245ec7
p7658
sV54bfbc8dee53c
p7659
V54ff180ac9c1c
p7660
sV54bfbc61e1af4
p7661
V54ff17ffa2cb4
p7662
sV54bfbc85449d1
p7663
V54ff18088b5b4
p7664
sV54bfbc81df97c
p7665
V54ff1807dbed3
p7666
sV54bfbc8d6cb08
p7667
V54ff180a85576
p7668
sV54bfbc6e61c3a
p7669
V54ff18026c347
p7670
sV54bfbc8505d06
p7671
V54ff18088c053
p7672
sV54bfbc924315b
p7673
V54ff180c0e2b1
p7674
sV54bfbc79cfd4b
p7675
V54ff18057b664
p7676
sV54bfbc7003c72
p7677
V54ff1802d5c8d
p7678
sV54bfbc802f126
p7679
V54ff180edb471
p7680
sV54bfbc6a6964f
p7681
V54ff1801a35a0
p7682
sV54bfbc6410b37
p7683
V54ff17ff4b1f8
p7684
sV54bfbc72808cb
p7685
V54ff18039978d
p7686
sV54bfbc7d1f635
p7687
V54ff1806a845a
p7688
sV54bfbc6800ef2
p7689
V54ff1800be152
p7690
sV54bfbc95f2b0b
p7691
V54ff180d400d9
p7692
sV54bfbc9718e44
p7693
V54ff180d6589f
p7694
sV54bfbc7131af1
p7695
V54ff180333d6e
p7696
sV54bfbc857fe1b
p7697
V54ff180843faa
p7698
sV54bfbc9432986
p7699
V54ff180c7ac23
p7700
sV54bfbc96098fd
p7701
V54ff180d40396
p7702
sV54bfbc965c251
p7703
V54ff180d63f35
p7704
sV54bfbc910d8d3
p7705
V54ff180b50be8
p7706
sV54bfbc7fb8d69
p7707
V54ff180778b07
p7708
sV54bfbc8de8410
p7709
V54ff180ac9a4f
p7710
sV54bfbc701de3b
p7711
V54ff1802f3ec6
p7712
sV54bfbc73adf98
p7713
V54ff1804649c8
p7714
sV54bfbc5d083ac
p7715
V54ff17fdaf1ea
p7716
sV54bfbc81bd672
p7717
V54ff18077b2c9
p7718
sV54bfbc5c95ea3
p7719
V54ff17fdaebe5
p7720
sV54bfbc96f2b0d
p7721
V54ff180d16e6b
p7722
sV54bfbc806f3a4
p7723
V54ff1807526f2
p7724
sV54bfbc90ed5ce
p7725
V54ff180b5027a
p7726
sV54bfbc9793f2d
p7727
V54ff180da696b
p7728
sV54bfbc97024af
p7729
V54ff180d1707b
p7730
sV54bfbc79e1a05
p7731
V54ff180edadcc
p7732
sV54bfbc636d7f8
p7733
V54ff180e5d8e2
p7734
sV54bfbc62c6e21
p7735
V54ff17ff72787
p7736
sV54bfbc9602976
p7737
V54ff180d401dd
p7738
sV54bfbc5f0fd3a
p7739
V54ff17fe8ba1c
p7740
sV54bfbc9334137
p7741
V54ff180cadb43
p7742
sV54bfbc95ed714
p7743
V54ff180d3fe11
p7744
sV54bfbc5c7aa83
p7745
V54ff17fdaddfd
p7746
sV54bfbc7014e14
p7747
V54ff1802d2052
p7748
sV54bfbc8740d51
p7749
V54ff18091aefe
p7750
sV54bfbc7b6a156
p7751
V54ff1805f1f0a
p7752
sV54bfbc830ed05
p7753
V54ff1808199d1
p7754
sV54bfbc67711e6
p7755
V54ff1800e6579
p7756
sV54bfbc7c0c476
p7757
V54ff18061e2ce
p7758
sV54bfbc79e8aa5
p7759
V54ff180543a21
p7760
sV54bfbc9723762
p7761
V54ff180d65cfc
p7762
sV54bfbc61c45cd
p7763
V54ff17ff71642
p7764
sV54bfbc5d0e161
p7765
V54ff17fde621a
p7766
sV54bfbc78a1382
p7767
V54ff180506887
p7768
sV54bfbc7e70f36
p7769
V54ff18067bbe0
p7770
sV54bfbc616aa24
p7771
V54ff17ff28aa5
p7772
sV54bfbc7a56d41
p7773
V54ff18057d401
p7774
sV54bfbc99d0735
p7775
V54ff180e33d07
p7776
sV54bfbc7526f24
p7777
V54ff180422b08
p7778
sV54bfbc6017c8e
p7779
V54ff17fead94e
p7780
sV54bfbc6580dea
p7781
V54ff17ffd44ad
p7782
sV54bfbc67e3c3d
p7783
V54ff1800bceef
p7784
sV54bfbc7488867
p7785
V54ff180442cf6
p7786
sV54bfbc69a4cba
p7787
V54ff18011e607
p7788
sV54bfbc895e0af
p7789
V54ff180a0c743
p7790
sV54bfbc700b013
p7791
V54ff1802d1b0b
p7792
sV54bfbc9111ea9
p7793
V54ff180b51d34
p7794
sV54bfbc9285302
p7795
V54ff180c0ea06
p7796
sV54bfbc65c2eb6
p7797
V54ff1800631dc
p7798
sV54bfbc6fdf5a0
p7799
V54ff1802d102d
p7800
sV54bfbc8dd2542
p7801
V54ff180ac9147
p7802
sV54bfbc91e4f39
p7803
V54ff180bc515a
p7804
sV54bfbc6536617
p7805
V54ff17ff4ac49
p7806
sV54bfbc922f434
p7807
V54ff180c0db9a
p7808
sV54bfbc74798bf
p7809
V54ff180441f83
p7810
sV54bfbc6113c26
p7811
V54ff17fee1aa0
p7812
sV54bfbc78d8a77
p7813
V54ff18052b308
p7814
sV54bfbc88d4b8e
p7815
V54ff180a32f83
p7816
sV54bfbc8ef3ab8
p7817
V54ff180b1f295
p7818
sV54bfbc887e2a7
p7819
V54ff180a0cd0c
p7820
sV54bfbc61f1b51
p7821
V54ff17ffa356f
p7822
sV54bfbc64e6814
p7823
V54ff1800161e1
p7824
sV54bfbc6e6e320
p7825
V54ff18026c9d0
p7826
sV54bfbc7ad619d
p7827
V54ff1805b20ed
p7828
sV54bfbc711ff55
p7829
V54ff180eb0e07
p7830
sV54bfbc7a8b995
p7831
V54ff18057cc5e
p7832
sV54bfbc7c14a2d
p7833
V54ff18061e5f8
p7834
sV54bfbc7aadf76
p7835
V54ff1805b1e46
p7836
sV54bfbc7297f66
p7837
V54ff18039a064
p7838
sV54bfbc6e05bd2
p7839
V54ff18021d773
p7840
sV54bfbc67ef13a
p7841
V54ff1800bd722
p7842
sV54bfbc69b0b7c
p7843
V54ff18017556a
p7844
sV54bfbc794fab2
p7845
V54ff1805437cd
p7846
sV54bfbc685d8cb
p7847
V54ff1801caec9
p7848
sV54bfbc669ec0d
p7849
V54ff1800642e0
p7850
sV54bfbc7919506
p7851
V54ff180529fc3
p7852
sV54bfbc8cb8920
p7853
V54ff1809a2457
p7854
sV54bfbc93cfa5b
p7855
V54ff180c74230
p7856
sV54bfbc67ab4c0
p7857
V54ff1800e6ea5
p7858
sV54bfbc8ac6624
p7859
V54ff180979d11
p7860
sV54bfbc71639a4
p7861
V54ff18036291d
p7862
sV54bfbc7392e55
p7863
V54ff1804402f6
p7864
sV54bfbc9695d55
p7865
V54ff180d17ae7
p7866
sV54bfbc7fbae38
p7867
V54ff180778c04
p7868
sV54bfbc6d0fa71
p7869
V54ff18021e4dd
p7870
sV54bfbc5b2b305
p7871
V54ff17fd53a4d
p7872
sV54bfbc81b9ad0
p7873
V54ff18077b772
p7874
sV54bfbc6a11d3c
p7875
V54ff180175c98
p7876
sV54bfbc84e9fd4
p7877
V54ff18086505a
p7878
sV54bfbc6340aef
p7879
V54ff17ff71cc3
p7880
sV54bfbc7def164
p7881
V54ff1806a8c7c
p7882
sV54bfbc6dee0ec
p7883
V54ff18021b791
p7884
sV54bfbc8ead04a
p7885
V54ff180b1ec91
p7886
sV54bfbc8f438fa
p7887
V54ff180af2568
p7888
sV54bfbc7a95138
p7889
V54ff1805b2580
p7890
sV54bfbc66c6747
p7891
V54ff18008d1f9
p7892
sV54bfbc78d2cd2
p7893
V54ff18052b0a2
p7894
sV54bfbc943c1d1
p7895
V54ff180c75866
p7896
sV54bfbc5d14266
p7897
V54ff17fde6691
p7898
sV54bfbc64de3cb
p7899
V54ff180015e1f
p7900
sV54bfbc7fca9e9
p7901
V54ff1807523a1
p7902
sV54bfbc6382ca3
p7903
V54ff180e83036
p7904
sV54bfbc9210653
p7905
V54ff180c0d19d
p7906
sV54bfbc8313b53
p7907
V54ff180819fa9
p7908
sV54bfbc924f23b
p7909
V54ff180c0e6b7
p7910
sV54bfbc6b4b8ec
p7911
V54ff1801a2bcd
p7912
sV54bfbc67b4eca
p7913
V54ff18014bd64
p7914
sV54bfbc63c0e4f
p7915
V54ff17ff4c34a
p7916
sV54bfbc8d24f23
p7917
V54ff180a56e3c
p7918
sV54bfbc98263d3
p7919
V54ff180dd12b3
p7920
sV54bfbc6a7f8a7
p7921
V54ff1801a3fc3
p7922
sV54bfbc86e9714
p7923
V54ff1808b1a99
p7924
sV54bfbc5b685b3
p7925
V54ff17fd744f9
p7926
sV54bfbc7079589
p7927
V54ff1803012a4
p7928
sV54bfbc5bb7cea
p7929
V54ff17fd548d1
p7930
sV54bfbc625563b
p7931
V54ff17ffd5473
p7932
sV54bfbc854cb1f
p7933
V54ff18088b2bc
p7934
sV54bfbc7673de7
p7935
V54ff18048ddfc
p7936
sV54bfbc7d048b1
p7937
V54ff1806a7b03
p7938
sV54bfbc921a3cc
p7939
V54ff180c0d526
p7940
sV54bfbc655e138
p7941
V54ff17ffa4736
p7942
sV54bfbc69a90b4
p7943
V54ff18014b1db
p7944
sV54bfbc967b207
p7945
V54ff180d15b9d
p7946
sV54bfbc8468b8b
p7947
V54ff18086672f
p7948
sV54bfbc99e98ce
p7949
V54ff180e34787
p7950
sV54bfbc7ebd7e5
p7951
V54ff1806cf759
p7952
sV54bfbc81474eb
p7953
V54ff18077a09d
p7954
sV54bfbc93cdb27
p7955
V54ff180c7412e
p7956
sV54bfbc71953c3
p7957
V54ff180363256
p7958
sV54bfbc8f6e011
p7959
V54ff180b2096d
p7960
sV54bfbc612184d
p7961
V54ff17fee1f42
p7962
sV54bfbc90e1b4a
p7963
V54ff180b9aa7e
p7964
sV54bfbc9561ef3
p7965
V54ff180ce4bbb
p7966
sV54bfbc7b12135
p7967
V54ff1805b222f
p7968
sV54bfbc5eb0d39
p7969
V54ff17fe8bd3a
p7970
sV54bfbc8de09cb
p7971
V54ff180ac9885
p7972
sV54bfbc8e5e73b
p7973
V54ff180af3181
p7974
sV54bfbc614e147
p7975
V54ff17ff27cf3
p7976
sV54bfbc771fc29
p7977
V54ff1804bebbc
p7978
sV54bfbc8063b2e
p7979
V54ff1806efd59
p7980
sV54bfbc61cfaba
p7981
V54ff17ff71fa3
p7982
sV54bfbc8c71517
p7983
V54ff1809a0975
p7984
sV54bfbc731807b
p7985
V54ff18039ab8a
p7986
sV54bfbc5b426d4
p7987
V54ff17fd54b5c
p7988
sV54bfbc979cd9b
p7989
V54ff180da6f7c
p7990
sV54bfbc968ca34
p7991
V54ff180d3eefb
p7992
sV54bfbc8ba509b
p7993
V54ff1809d3788
p7994
sV54bfbc6a086ea
p7995
V54ff1801a3904
p7996
sV54bfbc990a234
p7997
V54ff180e10f6b
p7998
sV54bfbc969b4a4
p7999
V54ff180d16fab
p8000
sV54bfbc72ca417
p8001
V54ff1803c436a
p8002
sV54bfbc7657b71
p8003
V54ff18048d5fb
p8004
sV54bfbc8e01bd1
p8005
V54ff180ac9f36
p8006
sV54bfbc64180d6
p8007
V54ff17ff4b57e
p8008
sV54bfbc85d7f18
p8009
V54ff1808afd55
p8010
sV54bfbc9972aaa
p8011
V54ff180e325b4
p8012
sV54bfbc74500b8
p8013
V54ff1804218ba
p8014
sV54bfbc90bb572
p8015
V54ff180b9b4b5
p8016
sV54bfbc8137cfb
p8017
V54ff18072813c
p8018
sV54bfbc7bf371c
p8019
V54ff18061a1bc
p8020
sV54bfbc607135f
p8021
V54ff17fedebfc
p8022
sV54bfbc680dd7d
p8023
V54ff1800e4aac
p8024
sV54bfbc7766c08
p8025
V54ff1804bf416
p8026
sV54bfbc6276ee3
p8027
V54ff17ff70f7c
p8028
sV54bfbc75cd983
p8029
V54ff180eb25f7
p8030
sV54bfbc67c5034
p8031
V54ff1800bdd81
p8032
sV54bfbc7a9c61d
p8033
V54ff1805b3916
p8034
sV54bfbc8ac42f2
p8035
V54ff18097a30a
p8036
sV54bfbc69a7061
p8037
V54ff18014b142
p8038
sV54bfbc9778d23
p8039
V54ff180da48d0
p8040
sV54bfbc90b5379
p8041
V54ff180b9a526
p8042
sV54bfbc6f94de7
p8043
V54ff1802d0216
p8044
sV54bfbc79c7ad2
p8045
V54ff18057b20b
p8046
sV54bfbc5f36e1c
p8047
V54ff17fe5bb91
p8048
sV54bfbc967e82c
p8049
V54ff180d15e13
p8050
sV54bfbc75befc7
p8051
V54ff180423193
p8052
sV54bfbc833b86b
p8053
V54ff18081acf1
p8054
sV54bfbc7530376
p8055
V54ff180422f00
p8056
sV54bfbc8d5fa15
p8057
V54ff180a57c57
p8058
sV54bfbc6336ce9
p8059
V54ff17ff71af3
p8060
sV54bfbc6030848
p8061
V54ff17feae7a9
p8062
sV54bfbc9741eef
p8063
V54ff180da5e1b
p8064
sV54bfbc7dd9521
p8065
V54ff1806a7f89
p8066
sV54bfbc7ccc00d
p8067
V54ff1806544cb
p8068
sV54bfbc8d1f03f
p8069
V54ff180a569d7
p8070
sV54bfbc87b9613
p8071
V54ff180a32cea
p8072
sV54bfbc8cbe80d
p8073
V54ff18094d547
p8074
sV54bfbc92b229e
p8075
V54ff180c42631
p8076
sV54bfbc89be777
p8077
V54ff18091adf3
p8078
sV54bfbc8d46744
p8079
V54ff180a57161
p8080
sV54bfbc6bc21f6
p8081
V54ff18014b725
p8082
sV54bfbc5c8664c
p8083
V54ff17fdae7a7
p8084
sV54bfbc5f335bf
p8085
V54ff17fe8c8f8
p8086
sV54bfbc71b52d7
p8087
V54ff180363607
p8088
sV54bfbc802484a
p8089
V54ff180752d38
p8090
sV54bfbc75e1aba
p8091
V54ff1803ef4d8
p8092
sV54bfbc69a27c3
p8093
V54ff18011e6f3
p8094
sV54bfbc66da103
p8095
V54ff18008dbf8
p8096
sV54bfbc61ae731
p8097
V54ff17ff4a08c
p8098
sV54bfbc78205d7
p8099
V54ff1805041ab
p8100
sV54bfbc7884a10
p8101
V54ff180505c87
p8102
sV54bfbc99e39fa
p8103
V54ff180e5aaa3
p8104
sV54bfbc7b0a1e3
p8105
V54ff18057ec35
p8106
sV54bfbc7b4836f
p8107
V54ff1805f1098
p8108
sV54bfbc7de09ad
p8109
V54ff1806a8317
p8110
sV54bfbc691e3ce
p8111
V54ff18008f681
p8112
sV54bfbc8cb65f4
p8113
V54ff1809a24f7
p8114
sV54bfbc6d497a0
p8115
V54ff18026bb9e
p8116
sV54bfbc9568133
p8117
V54ff180ce51c7
p8118
sV54bfbc5be98c4
p8119
V54ff17fd760b8
p8120
sV54bfbc5b32fe0
p8121
V54ff17fd5406e
p8122
sV54bfbc65ab899
p8123
V54ff17ffd3ffb
p8124
sV54bfbc9683e27
p8125
V54ff180d160df
p8126
sV54bfbc864a2f1
p8127
V54ff18091a738
p8128
sV54bfbc7e6acbf
p8129
V54ff1806a90f9
p8130
sV54bfbc95ca42c
p8131
V54ff180d17fb4
p8132
sV54bfbc65cb25e
p8133
V54ff18003d6ac
p8134
sV54bfbc88bc18d
p8135
V54ff180a310d6
p8136
sV54bfbc84a7d9d
p8137
V54ff180866f52
p8138
sV54bfbc6b56e3d
p8139
V54ff1801cb368
p8140
sV54bfbc88ca8cd
p8141
V54ff1808de8cd
p8142
sV54bfbc7d6ff75
p8143
V54ff18067b512
p8144
sV54bfbc6bb494c
p8145
V54ff18014b2fc
p8146
sV54bfbc79d2072
p8147
V54ff18057b794
p8148
sV54bfbc967cc99
p8149
V54ff180d3f41e
p8150
sV54bfbc71e0772
p8151
V54ff180364cc6
p8152
sV54bfbc70225cb
p8153
V54ff1802f40ab
p8154
sV54bfbc7688d65
p8155
V54ff18048f0cb
p8156
sV54bfbc63e390e
p8157
V54ff17ffd5bfa
p8158
sV54bfbc5d58979
p8159
V54ff17fde76da
p8160
sV54bfbc7d1962c
p8161
V54ff1806a74a3
p8162
sV54bfbc7b618a8
p8163
V54ff1805f1cf3
p8164
sV54bfbc757b427
p8165
V54ff180421cb9
p8166
sV54bfbc6608e4c
p8167
V54ff180062c5a
p8168
sV54bfbc5c80926
p8169
V54ff17fdad766
p8170
sV54bfbc63602bb
p8171
V54ff180e5d432
p8172
sV54bfbc81ad7cb
p8173
V54ff18077b38f
p8174
sV54bfbc828912c
p8175
V54ff1807dda0b
p8176
sV54bfbc61efab1
p8177
V54ff17ffa3496
p8178
sV54bfbc8f0e3c0
p8179
V54ff180af1ef3
p8180
sV54bfbc81c8ba9
p8181
V54ff1807db4c4
p8182
sV54bfbc5b3dbef
p8183
V54ff17fd54955
p8184
sV54bfbc75b3b76
p8185
V54ff180422d36
p8186
sV54bfbc72ace37
p8187
V54ff18039a6a1
p8188
sV54bfbc693e831
p8189
V54ff1800bc70f
p8190
sV54bfbc5e86bd2
p8191
V54ff180e5cfd0
p8192
sV54bfbc8669c9e
p8193
V54ff180a31332
p8194
sV54bfbc8883e45
p8195
V54ff18094de70
p8196
sV54bfbc8f8026d
p8197
V54ff180b1fc63
p8198
sV54bfbc619b3e1
p8199
V54ff17ff29239
p8200
sV54bfbc7befc3a
p8201
V54ff18061a03e
p8202
sV54bfbc70a67bf
p8203
V54ff180301aaa
p8204
sV54bfbc7322827
p8205
V54ff180466d8e
p8206
sV54bfbc7b02261
p8207
V54ff18057dbaf
p8208
sV54bfbc8ad9300
p8209
V54ff1808e0bec
p8210
sV54bfbc7ae0295
p8211
V54ff18057eb72
p8212
sV54bfbc61b9ded
p8213
V54ff17ff71336
p8214
sV54bfbc8b7ebae
p8215
V54ff1809a1e51
p8216
sV54bfbc5e03848
p8217
V54ff17fe27215
p8218
sV54bfbc80499c7
p8219
V54ff1807533f5
p8220
sV54bfbc6e83e46
p8221
V54ff18026d56d
p8222
sV54bfbc647d75f
p8223
V54ff17ffd5200
p8224
sV54bfbc8adf9b3
p8225
V54ff180978e78
p8226
sV54bfbc739129a
p8227
V54ff180440161
p8228
sV54bfbc702da18
p8229
V54ff180300615
p8230
sV54bfbc5b3ff86
p8231
V54ff17fd54adf
p8232
sV54bfbc9565f49
p8233
V54ff180ce4a54
p8234
sV54bfbc9668d75
p8235
V54ff180d18106
p8236
sV54bfbc731a5df
p8237
V54ff1803c4940
p8238
sV54bfbc6b191a7
p8239
V54ff1801a53af
p8240
sV54bfbc64047b6
p8241
V54ff17ff4a4e7
p8242
sV54bfbc6720b5a
p8243
V54ff18008e5da
p8244
sV54bfbc95cdc34
p8245
V54ff180d3f5d0
p8246
sV54bfbc6cdf425
p8247
V54ff18021e1c2
p8248
sV54bfbc6b4d8f7
p8249
V54ff1801a302a
p8250
sV54bfbc8f4d3a2
p8251
V54ff180af2954
p8252
sV54bfbc5d2ac35
p8253
V54ff17fde7135
p8254
sV54bfbc6e0fce6
p8255
V54ff1802467a8
p8256
sV54bfbc6c4fb0a
p8257
V54ff18011d5b4
p8258
sV54bfbc5c845e2
p8259
V54ff17fdaea38
p8260
sV54bfbc65f0dbb
p8261
V54ff180063ca4
p8262
sV54bfbc961473c
p8263
V54ff180d6343d
p8264
sV54bfbc9079a36
p8265
V54ff180b52069
p8266
sV54bfbc764a4ec
p8267
V54ff180467451
p8268
sV54bfbc657943a
p8269
V54ff17ffa5207
p8270
sV54bfbc8398d48
p8271
V54ff180843642
p8272
sV54bfbc73337ef
p8273
V54ff180465a58
p8274
sV54bfbc71a8061
p8275
V54ff180363e59
p8276
sV54bfbc7e6d393
p8277
V54ff1806a91e9
p8278
sV54bfbc9424507
p8279
V54ff180c7a84f
p8280
sV54bfbc6d00b26
p8281
V54ff18021d0ca
p8282
sV54bfbc8ef18c0
p8283
V54ff180af3311
p8284
sV54bfbc6924c12
p8285
V54ff18008f92b
p8286
sV54bfbc8308d1f
p8287
V54ff1808195ba
p8288
sV54bfbc5c9e970
p8289
V54ff17fdaf591
p8290
sV54bfbc9070b5a
p8291
V54ff180b51ba3
p8292
sV54bfbc6dcf058
p8293
V54ff1802455b7
p8294
sV54bfbc714c90c
p8295
V54ff18033434e
p8296
sV54bfbc636f8ef
p8297
V54ff180e5d9bb
p8298
sV54bfbc76d9609
p8299
V54ff1804be291
p8300
sV54bfbc81b5a98
p8301
V54ff18077b5f7
p8302
sV54bfbc73b9e4e
p8303
V54ff1803c53cb
p8304
sV54bfbc764fb16
p8305
V54ff18048d34f
p8306
sV54bfbc8880201
p8307
V54ff180a0cc29
p8308
sV54bfbc78aac79
p8309
V54ff180506ce5
p8310
sV54bfbc70b83e8
p8311
V54ff180332f3a
p8312
sV54bfbc65013e1
p8313
V54ff18003bd07
p8314
sV54bfbc5d3acd1
p8315
V54ff17fe27460
p8316
sV54bfbc8ca925c
p8317
V54ff1809d0da8
p8318
sV54bfbc89a9203
p8319
V54ff180edbcae
p8320
sV54bfbc5d56539
p8321
V54ff180e5bd37
p8322
sV54bfbc955fab2
p8323
V54ff180f0e936
p8324
sV54bfbc63e7802
p8325
V54ff17ffd6812
p8326
sV54bfbc6de26b0
p8327
V54ff180245ba5
p8328
sV54bfbc61a2ca3
p8329
V54ff180e835f9
p8330
sV54bfbc865d894
p8331
V54ff180a0baa7
p8332
sV54bfbc6f659f1
p8333
V54ff1802a403f
p8334
sV54bfbc7007627
p8335
V54ff1802d5e17
p8336
sV54bfbc6c3d813
p8337
V54ff18011cc27
p8338
sV54bfbc973fa16
p8339
V54ff180da71d7
p8340
sV54bfbc7ab6377
p8341
V54ff1805b367a
p8342
sV54bfbc6564343
p8343
V54ff17ffa497d
p8344
sV54bfbc5ca09e5
p8345
V54ff17fde57bc
p8346
sV54bfbc6fe58c4
p8347
V54ff1802d1340
p8348
sV54bfbc666601b
p8349
V54ff180064118
p8350
sV54bfbc9586141
p8351
V54ff180ce65a8
p8352
sV54bfbc605f5d8
p8353
V54ff17feaf39b
p8354
sV54bfbc5c91fec
p8355
V54ff17fdadbc6
p8356
sV54bfbc9a0dee9
p8357
V54ff180e34cfe
p8358
sV54bfbc9737815
p8359
V54ff180d66ad8
p8360
sV54bfbc7085046
p8361
V54ff180332df6
p8362
sV54bfbc960b60a
p8363
V54ff180d63236
p8364
sV54bfbc69e2a31
p8365
V54ff1800e4d50
p8366
sV54bfbc8c6efe1
p8367
V54ff1809a072f
p8368
sV54bfbc7b5cb18
p8369
V54ff1805f14bc
p8370
sV54bfbc6306771
p8371
V54ff18003c999
p8372
sV54bfbc64f18ce
p8373
V54ff180e8601b
p8374
sV54bfbc5c2bb16
p8375
V54ff17fdad2f1
p8376
sV54bfbc9859937
p8377
V54ff180dd2767
p8378
sV54bfbc5f2f376
p8379
V54ff17fe8c76e
p8380
sV54bfbc71d9ff9
p8381
V54ff180399612
p8382
sV54bfbc6fecc97
p8383
V54ff1802d1a2c
p8384
sV54bfbc8355416
p8385
V54ff180842bca
p8386
sV54bfbc8283d11
p8387
V54ff1807dd857
p8388
sV54bfbc729e3a0
p8389
V54ff18039a260
p8390
sV54bfbc5e97659
p8391
V54ff17fe5b02a
p8392
sV54bfbc7b3d612
p8393
V54ff1805b2c9e
p8394
sV54bfbc6d69168
p8395
V54ff1801eb0b0
p8396
sV54bfbc61bc027
p8397
V54ff17ff713da
p8398
sV54bfbc8e554d2
p8399
V54ff180edc642
p8400
sV54bfbc916d2ba
p8401
V54ff180bc2de9
p8402
sV54bfbc915fa83
p8403
V54ff180bc282c
p8404
sV54bfbc67e1eec
p8405
V54ff1800bce4b
p8406
sV54bfbc8337013
p8407
V54ff18081a9be
p8408
sV54bfbc69e929b
p8409
V54ff180eafea9
p8410
sV54bfbc5be4c1d
p8411
V54ff17fd75cf2
p8412
sV54bfbc713a622
p8413
V54ff180334075
p8414
sV54bfbc97767aa
p8415
V54ff180da614d
p8416
sV54bfbc834ab46
p8417
V54ff180842634
p8418
sV54bfbc8add7ab
p8419
V54ff1808e0d90
p8420
sV54bfbc8fd9ac6
p8421
V54ff180b5164d
p8422
sV54bfbc7e865d9
p8423
V54ff18067c315
p8424
sV54bfbc728b662
p8425
V54ff180399c28
p8426
sV54bfbc79a1107
p8427
V54ff18054509f
p8428
sV54bfbc8643ed7
p8429
V54ff18091911e
p8430
sV54bfbc5cecdee
p8431
V54ff17fde5d37
p8432
sV54bfbc7c2d2cf
p8433
V54ff18061e9d0
p8434
sV54bfbc60020ff
p8435
V54ff17fead53c
p8436
sV54bfbc7f4d36b
p8437
V54ff1806cfea3
p8438
sV54bfbc695e639
p8439
V54ff1800bdbd6
p8440
sV54bfbc91ce066
p8441
V54ff180bc4fbc
p8442
sV54bfbc739b52a
p8443
V54ff180eb20f7
p8444
sV54bfbc6481514
p8445
V54ff1800146a9
p8446
sV54bfbc61df8d7
p8447
V54ff17ffa2af6
p8448
sV54bfbc671be20
p8449
V54ff18008e96b
p8450
sV54bfbc6013c8d
p8451
V54ff17fead84d
p8452
sV54bfbc6a5807f
p8453
V54ff1801766f4
p8454
sV54bfbc992d73d
p8455
V54ff180e120ee
p8456
sV54bfbc8a0c32b
p8457
V54ff1809a0fd6
p8458
sV54bfbc657ee7f
p8459
V54ff17ffaa61f
p8460
sV54bfbc6d46077
p8461
V54ff180246158
p8462
sV54bfbc712d7f7
p8463
V54ff1803340fd
p8464
sV54bfbc8050aea
p8465
V54ff180753742
p8466
sV54bfbc7532079
p8467
V54ff180421928
p8468
sV54bfbc6484d4b
p8469
V54ff180e85d1b
p8470
sV54bfbc789d0fc
p8471
V54ff1805066c9
p8472
sV54bfbc6a93179
p8473
V54ff1801a4601
p8474
sV54bfbc80ec3cf
p8475
V54ff1807262c6
p8476
sV54bfbc814cf56
p8477
V54ff18077a418
p8478
sV54bfbc9346e0e
p8479
V54ff180cae45d
p8480
sV54bfbc9520172
p8481
V54ff180edcc7d
p8482
sV54bfbc906a991
p8483
V54ff180b4faee
p8484
sV54bfbc62f0d4f
p8485
V54ff18003c689
p8486
sV54bfbc84e081a
p8487
V54ff18088ca31
p8488
sV54bfbc5e18b48
p8489
V54ff17fe28855
p8490
sV54bfbc621d033
p8491
V54ff17ffa3642
p8492
sV54bfbc7dd266d
p8493
V54ff1806a7631
p8494
sV54bfbc8103204
p8495
V54ff1807267fd
p8496
sV54bfbc813335b
p8497
V54ff180727f4f
p8498
sV54bfbc608c30a
p8499
V54ff17fee0997
p8500
sV54bfbc67ea4e9
p8501
V54ff1800bd2d7
p8502
sV54bfbc6161658
p8503
V54ff180e83299
p8504
sV54bfbc655a39f
p8505
V54ff180e852c0
p8506
sV54bfbc60bf2a5
p8507
V54ff17fee0f9a
p8508
sV54bfbc9175137
p8509
V54ff180bc3446
p8510
sV54bfbc7af2c5b
p8511
V54ff18057debf
p8512
sV54bfbc6d79a4d
p8513
V54ff18021dbfc
p8514
sV54bfbc99ed751
p8515
V54ff180e3484c
p8516
sV54bfbc6b54c14
p8517
V54ff1801cb260
p8518
sV54bfbc872be2a
p8519
V54ff1809194ae
p8520
sV54bfbc7f9e3f0
p8521
V54ff1807544d0
p8522
sV54bfbc5f3c2a1
p8523
V54ff17fe5bca6
p8524
sV54bfbc8ca6f37
p8525
V54ff1809d0f36
p8526
sV54bfbc5ebcb52
p8527
V54ff17fe8c1cd
p8528
sV54bfbc5f238b6
p8529
V54ff17fe5c4c6
p8530
sV54bfbc6805424
p8531
V54ff1800e429e
p8532
sV54bfbc625d0c5
p8533
V54ff17ffd622f
p8534
sV54bfbc7bdf4b9
p8535
V54ff1806193ec
p8536
sV54bfbc9200b33
p8537
V54ff180c0ca05
p8538
sV54bfbc8e5ac54
p8539
V54ff180af3034
p8540
sV54bfbc8593722
p8541
V54ff1808af123
p8542
sV54bfbc93c9ee9
p8543
V54ff180c733c4
p8544
sV54bfbc84b5b99
p8545
V54ff1808428e2
p8546
sV54bfbc707d762
p8547
V54ff180332b1f
p8548
sV54bfbc63f321a
p8549
V54ff180e853bd
p8550
sV54bfbc6479d8a
p8551
V54ff17ff71824
p8552
sV54bfbc84e2add
p8553
V54ff18088c986
p8554
sV54bfbc6a955a9
p8555
V54ff1801a4708
p8556
sV54bfbc7fe157d
p8557
V54ff1806ef3c2
p8558
sV54bfbc675e1f6
p8559
V54ff18011bf4c
p8560
sV54bfbc78155dc
p8561
V54ff1804bffc7
p8562
sV54bfbc5d3ca88
p8563
V54ff17fe275b7
p8564
sV54bfbc6304859
p8565
V54ff18003c905
p8566
sV54bfbc9204b02
p8567
V54ff180c0cd27
p8568
sV54bfbc612aa61
p8569
V54ff17fee2270
p8570
sV54bfbc6530cfc
p8571
V54ff18003cfc5
p8572
sV54bfbc733b5bf
p8573
V54ff180eb2863
p8574
sV54bfbc936edce
p8575
V54ff180c73ba0
p8576
sV54bfbc75f064e
p8577
V54ff180465706
p8578
sV54bfbc75ee5ef
p8579
V54ff1803efaee
p8580
sV54bfbc83e5aad
p8581
V54ff1808649fd
p8582
sV54bfbc6c4d9a9
p8583
V54ff18011d497
p8584
sV54bfbc75673c2
p8585
V54ff1803eec4c
p8586
sV54bfbc7721969
p8587
V54ff180eda070
p8588
sV54bfbc5c567c0
p8589
V54ff17fdad9c7
p8590
sV54bfbc82a783a
p8591
V54ff1807de77d
p8592
sV54bfbc6c6841a
p8593
V54ff18011df12
p8594
sV54bfbc80be0ef
p8595
V54ff180753c36
p8596
sV54bfbc6d7bbfa
p8597
V54ff18021c4d8
p8598
sV54bfbc6a64efa
p8599
V54ff1801a3470
p8600
sV54bfbc62d1333
p8601
V54ff180e84939
p8602
sV54bfbc7768f94
p8603
V54ff1804bf50b
p8604
sV54bfbc63793f2
p8605
V54ff180e82c86
p8606
sV54bfbc791b38c
p8607
V54ff18052a04a
p8608
sV54bfbc5fdc5a1
p8609
V54ff17feac63f
p8610
sV54bfbc602ed28
p8611
V54ff17feae665
p8612
sV54bfbc62d5315
p8613
V54ff1800151cd
p8614
sV54bfbc8bcb7ca
p8615
V54ff18094df4e
p8616
sV54bfbc8a50b7e
p8617
V54ff18097905f
p8618
sV54bfbc6a8f28b
p8619
V54ff1801a449f
p8620
sV54bfbc8b9c849
p8621
V54ff1809d3bff
p8622
sV54bfbc956a2b0
p8623
V54ff180ce52e8
p8624
sV54bfbc8971f4e
p8625
V54ff180a0c11f
p8626
sV54bfbc6cbab31
p8627
V54ff1801ea111
p8628
sV54bfbc8ca0873
p8629
V54ff1809d1183
p8630
sV54bfbc5ef3cff
p8631
V54ff17fe8b332
p8632
sV54bfbc6caec7c
p8633
V54ff1801e9743
p8634
sV54bfbc710ef2d
p8635
V54ff180333750
p8636
sV54bfbc5d479fa
p8637
V54ff180e5c57e
p8638
sV54bfbc62e5bce
p8639
V54ff180e8623e
p8640
sV54bfbc6d0805c
p8641
V54ff18021dfba
p8642
sV54bfbc7a10391
p8643
V54ff18057c68e
p8644
sV54bfbc8655f82
p8645
V54ff180a32ef4
p8646
sV54bfbc88a7257
p8647
V54ff18094eeb3
p8648
sV54bfbc945f374
p8649
V54ff180cb02f4
p8650
sV54bfbc5e2292d
p8651
V54ff17fe28fd5
p8652
sV54bfbc84aec2f
p8653
V54ff18086721b
p8654
sV54bfbc5f1cd43
p8655
V54ff17fe5c27a
p8656
sV54bfbc7f84d47
p8657
V54ff1806eedbd
p8658
sV54bfbc6c755a8
p8659
V54ff1801768e5
p8660
sV54bfbc61ac939
p8661
V54ff17ff49f97
p8662
sV54bfbc6057963
p8663
V54ff17feadf37
p8664
sV54bfbc8ab50fa
p8665
V54ff1808e05bd
p8666
sV54bfbc6f575ad
p8667
V54ff1802a4114
p8668
sV54bfbc9233d86
p8669
V54ff180c0dc9c
p8670
sV54bfbc8054588
p8671
V54ff1807539aa
p8672
sV54bfbc920d8df
p8673
V54ff180c0d094
p8674
sV54bfbc735c1eb
p8675
V54ff180eb1ce7
p8676
sV54bfbc8c9129c
p8677
V54ff1809a22ab
p8678
sV54bfbc803e23c
p8679
V54ff180752ea1
p8680
sV54bfbc782e2a9
p8681
V54ff180504f6a
p8682
sV54bfbc78c76c7
p8683
V54ff18052acf7
p8684
sV54bfbc8189d7e
p8685
V54ff1807795bf
p8686
sV54bfbc75adfbd
p8687
V54ff1803f0c18
p8688
sV54bfbc80ea541
p8689
V54ff180726383
p8690
sV54bfbc9526a4f
p8691
V54ff180cb0ab1
p8692
sV54bfbc772db8b
p8693
V54ff18048fb22
p8694
sV54bfbc7528d12
p8695
V54ff180422ba9
p8696
sV54bfbc7b72489
p8697
V54ff1805f218b
p8698
sV54bfbc95d542e
p8699
V54ff180d3f91e
p8700
sV54bfbc65716ee
p8701
V54ff180e8550d
p8702
sV54bfbc8561488
p8703
V54ff18088a677
p8704
sV54bfbc5d33a98
p8705
V54ff17fe27cc7
p8706
sV54bfbc6e270b0
p8707
V54ff180246f1a
p8708
sV54bfbc894e0df
p8709
V54ff180a3192f
p8710
sV54bfbc637d183
p8711
V54ff17ff274af
p8712
sV54bfbc8022a70
p8713
V54ff180752bac
p8714
sV54bfbc85864af
p8715
V54ff18088a71b
p8716
sV54bfbc856ee6b
p8717
V54ff180841ab1
p8718
sV54bfbc64d27b1
p8719
V54ff1800159cc
p8720
sV54bfbc7be3c29
p8721
V54ff180619b0b
p8722
sV54bfbc98145bc
p8723
V54ff180dd0c13
p8724
sV54bfbc640d4bc
p8725
V54ff17ff4a819
p8726
sV54bfbc8440fd0
p8727
V54ff180864f5b
p8728
sV54bfbc70991a6
p8729
V54ff18030143a
p8730
sV54bfbc5b6a600
p8731
V54ff17fd747f3
p8732
sV54bfbc9851e0e
p8733
V54ff180dd24a9
p8734
sV54bfbc8d0e7e1
p8735
V54ff18091bfe8
p8736
sV54bfbc755676b
p8737
V54ff18046653e
p8738
sV54bfbc87c6340
p8739
V54ff180a328db
p8740
sV54bfbc7841802
p8741
V54ff17fd545a6
p8742
sV54bfbc5b6fd42
p8743
V54ff17fd53780
p8744
sV54bfbc75c2a7e
p8745
V54ff1803eedfd
p8746
sV54bfbc75c9aa9
p8747
V54ff18044173a
p8748
sV54bfbc781c90c
p8749
V54ff1805040ec
p8750
sV54bfbc93d23d0
p8751
V54ff180c746c0
p8752
sV54bfbc746ba30
p8753
V54ff180465d33
p8754
sV54bfbc6ceb726
p8755
V54ff1801eb286
p8756
sV54bfbc6b9e035
p8757
V54ff1801c9bed
p8758
sV54bfbc6be4946
p8759
V54ff18014c629
p8760
sV54bfbc6cc6168
p8761
V54ff1801e9e97
p8762
sV54bfbc78c91ec
p8763
V54ff18052ad84
p8764
sV54bfbc893a919
p8765
V54ff180a3242a
p8766
sV54bfbc7c1c2fd
p8767
V54ff18061eae2
p8768
sV54bfbc71ee640
p8769
V54ff18036520e
p8770
sV54bfbc6845a43
p8771
V54ff18011ea1e
p8772
sV54bfbc6159a97
p8773
V54ff17ff282f0
p8774
sV54bfbc7086d17
p8775
V54ff180332c46
p8776
sV54bfbc7dd053e
p8777
V54ff1806a76fb
p8778
sV54bfbc61b7dc9
p8779
V54ff17ff71298
p8780
sV54bfbc8036a1f
p8781
V54ff1806ef9ff
p8782
sV54bfbc8557142
p8783
V54ff18088aadd
p8784
sV54bfbc7810a55
p8785
V54ff1804c060c
p8786
sV54bfbc8668216
p8787
V54ff180a32e57
p8788
sV54bfbc653e055
p8789
V54ff17ff70983
p8790
sV54bfbc5dd4596
p8791
V54ff180e5c08a
p8792
sV54bfbc838e813
p8793
V54ff180843178
p8794
sV54bfbc934ac0e
p8795
V54ff180cae6b7
p8796
sV54bfbc6bc7ffb
p8797
V54ff18014b8ef
p8798
sV54bfbc7cc9706
p8799
V54ff1806542c1
p8800
sV54bfbc853c1f5
p8801
V54ff18088b8d5
p8802
sV54bfbc5e2945b
p8803
V54ff17fe29314
p8804
sV54bfbc6f92c74
p8805
V54ff1802d0108
p8806
sV54bfbc5bf0e83
p8807
V54ff17fd7670e
p8808
sV54bfbc7c877ec
p8809
V54ff180653353
p8810
sV54bfbc6b0e3fa
p8811
V54ff1801a4b9f
p8812
sV54bfbc73c21ec
p8813
V54ff1803c51c6
p8814
sV54bfbc5ea8d69
p8815
V54ff17fe5b91b
p8816
sV54bfbc72c64fe
p8817
V54ff1803c4223
p8818
sV54bfbc692df90
p8819
V54ff1800bbb51
p8820
sV54bfbc68ce63b
p8821
V54ff18011c124
p8822
sV54bfbc9025f6f
p8823
V54ff180b4fa0d
p8824
sV54bfbc6350f05
p8825
V54ff17ff26940
p8826
sV54bfbc7fd809c
p8827
V54ff180778d82
p8828
sV54bfbc7e8c2a6
p8829
V54ff18067ab72
p8830
sV54bfbc708c3c9
p8831
V54ff18030215a
p8832
sV54bfbc953c2c2
p8833
V54ff180ce406e
p8834
sV54bfbc8d1a8c7
p8835
V54ff18091c19d
p8836
sV54bfbc5eb8eba
p8837
V54ff17fe8c040
p8838
sV54bfbc95e0fd5
p8839
V54ff180d3fae8
p8840
sV54bfbc5c6cfbb
p8841
V54ff17fdae274
p8842
sV54bfbc8278d16
p8843
V54ff1807dd37c
p8844
sV54bfbc78c3ec4
p8845
V54ff18052abe0
p8846
sV54bfbc811440b
p8847
V54ff180726fd5
p8848
sV54bfbc92e1cc4
p8849
V54ff180c7439f
p8850
sV54bfbc773548f
p8851
V54ff1804bf096
p8852
sV54bfbc901f8d7
p8853
V54ff180b21fe0
p8854
sV54bfbc7e884db
p8855
V54ff18067a6b3
p8856
sV54bfbc828d1ff
p8857
V54ff1807ddacc
p8858
sV54bfbc79231f2
p8859
V54ff18052a2e3
p8860
sV54bfbc71c2866
p8861
V54ff180399218
p8862
sV54bfbc944bce6
p8863
V54ff180caf929
p8864
sV54bfbc7535e53
p8865
V54ff180441852
p8866
sV54bfbc84dba3b
p8867
V54ff1808aeaed
p8868
sV54bfbc5e117e2
p8869
V54ff17fe28323
p8870
sV54bfbc81160da
p8871
V54ff1807270e0
p8872
sV54bfbc5dd04dc
p8873
V54ff180e5be69
p8874
sV54bfbc99c1973
p8875
V54ff180e336da
p8876
sV54bfbc832d320
p8877
V54ff18081a4b4
p8878
sV54bfbc7277b67
p8879
V54ff1803996d2
p8880
sV54bfbc95b9f32
p8881
V54ff180d179a9
p8882
sV54bfbc830ab93
p8883
V54ff1808196d4
p8884
sV54bfbc6b415c9
p8885
V54ff1801774e3
p8886
sV54bfbc92a3f2f
p8887
V54ff180c41e5f
p8888
sV54bfbc8a0353f
p8889
V54ff180953b33
p8890
sV54bfbc6d0279d
p8891
V54ff18021d192
p8892
sV54bfbc7b8d4cd
p8893
V54ff180618ebd
p8894
sV54bfbc97de14f
p8895
V54ff180dd0b46
p8896
sV54bfbc7c4d2a8
p8897
V54ff180652fe2
p8898
sV54bfbc72bb850
p8899
V54ff1803c4a46
p8900
sV54bfbc919fa37
p8901
V54ff180bc4abf
p8902
sV54bfbc8f9eee6
p8903
V54ff180b4fd86
p8904
sV54bfbc853e792
p8905
V54ff18088b7ce
p8906
sV54bfbc5ca7a71
p8907
V54ff17fdaecdd
p8908
sV54bfbc6bddf42
p8909
V54ff18014c3e7
p8910
sV54bfbc7c492e4
p8911
V54ff180652e54
p8912
sV54bfbc933addb
p8913
V54ff180cadea8
p8914
sV54bfbc933e041
p8915
V54ff180cadfb8
p8916
sV54bfbc7ea2fc3
p8917
V54ff1806cd4a9
p8918
sV54bfbc79a56b8
p8919
V54ff1805452b7
p8920
sV54bfbc6dec443
p8921
V54ff18021b2bd
p8922
sV54bfbc73467cb
p8923
V54ff1803efcf2
p8924
sV54bfbc82bdbc8
p8925
V54ff180818a2c
p8926
sV54bfbc6b58e4b
p8927
V54ff1801cb445
p8928
sV54bfbc6cc061e
p8929
V54ff1801e9c3f
p8930
sV54bfbc6949216
p8931
V54ff1800bccae
p8932
sV54bfbc674fccd
p8933
V54ff1800e5a92
p8934
sV54bfbc6ba24c8
p8935
V54ff1800e4e29
p8936
sV54bfbc6b3f0bc
p8937
V54ff180177067
p8938
sV54bfbc66a54cd
p8939
V54ff1800644a5
p8940
sV54bfbc753c25f
p8941
V54ff180464d73
p8942
sV54bfbc5bde088
p8943
V54ff17fd758f0
p8944
sV54bfbc875c239
p8945
V54ff180979221
p8946
sV54bfbc8a56bf4
p8947
V54ff180979614
p8948
sV54bfbc6f3c55a
p8949
V54ff1802a3268
p8950
sV54bfbc92b7cb7
p8951
V54ff180c4292b
p8952
sV54bfbc87e1a53
p8953
V54ff180a3155c
p8954
sV54bfbc6061317
p8955
V54ff17feaf107
p8956
sV54bfbc803309b
p8957
V54ff1806ef8e7
p8958
sV54bfbc5e5f4e8
p8959
V54ff17fe299b0
p8960
sV54bfbc6fcb036
p8961
V54ff180eb093d
p8962
sV54bfbc7ead8db
p8963
V54ff1806cd857
p8964
sV54bfbc97bade6
p8965
V54ff180da50ec
p8966
sV54bfbc965a318
p8967
V54ff180d63e08
p8968
sV54bfbc6539f1d
p8969
V54ff180015edd
p8970
sV54bfbc62c93b2
p8971
V54ff180e84517
p8972
sV54bfbc87ccdc9
p8973
V54ff180a32307
p8974
sV54bfbc6e2b412
p8975
V54ff18026b68a
p8976
sV54bfbc96e0881
p8977
V54ff180d6381c
p8978
sV54bfbc79cce03
p8979
V54ff18057b4e8
p8980
sV54bfbc6a84b1f
p8981
V54ff1801a419a
p8982
sV54bfbc5d179de
p8983
V54ff17fde6791
p8984
sV54bfbc9721ae9
p8985
V54ff180d65bfb
p8986
sV54bfbc937667c
p8987
V54ff180c43d35
p8988
sV54bfbc5b78691
p8989
V54ff17fd53cf3
p8990
sV54bfbc6f3a12f
p8991
V54ff1802a312d
p8992
sV54bfbc8965c5b
p8993
V54ff1808e0f54
p8994
sV54bfbc73cc9f8
p8995
V54ff1804413af
p8996
sV54bfbc6c57908
p8997
V54ff18011d8db
p8998
sV54bfbc8948642
p8999
V54ff180a31ed7
p9000
sV54bfbc850ae1a
p9001
V54ff18088be2b
p9002
sV54bfbc67de97a
p9003
V54ff1800bc3b6
p9004
sV54bfbc7108bd9
p9005
V54ff180eb0adf
p9006
sV54bfbc95c400d
p9007
V54ff180d17c88
p9008
sV54bfbc61d939f
p9009
V54ff17ffa2707
p9010
sV54bfbc8542376
p9011
V54ff18088b661
p9012
sV54bfbc68df93b
p9013
V54ff1801ca203
p9014
sV54bfbc6d8d5db
p9015
V54ff180245208
p9016
sV54bfbc6c6a687
p9017
V54ff18011e00d
p9018
sV54bfbc825b72e
p9019
V54ff1807dc476
p9020
sV54bfbc5d64305
p9021
V54ff17fde7f0e
p9022
sV54bfbc647ba1a
p9023
V54ff17ff72974
p9024
sV54bfbc842acba
p9025
V54ff180843928
p9026
sV54bfbc92bb996
p9027
V54ff180c42b1a
p9028
sV54bfbc67a91f4
p9029
V54ff18011c455
p9030
sV54bfbc76c37d4
p9031
V54ff18048eb85
p9032
sV54bfbc7dba469
p9033
V54ff180654ddd
p9034
sV54bfbc92aa70d
p9035
V54ff180c42195
p9036
sV54bfbc63b5b16
p9037
V54ff17ff4bf53
p9038
sV54bfbc9102f82
p9039
V54ff180b50664
p9040
sV54bfbc78b07e2
p9041
V54ff18052a554
p9042
sV54bfbc76c73f0
p9043
V54ff18049012c
p9044
sV54bfbc997625c
p9045
V54ff180e326c6
p9046
sV54bfbc6c55a5c
p9047
V54ff18011d81c
p9048
sV54bfbc671521c
p9049
V54ff18008df70
p9050
sV54bfbc6dc333d
p9051
V54ff18021cd67
p9052
sV54bfbc7602b00
p9053
V54ff180466b79
p9054
sV54bfbc982114a
p9055
V54ff180dd1121
p9056
sV54bfbc937a363
p9057
V54ff180c43eff
p9058
sV54bfbc6f90d97
p9059
V54ff1802d0063
p9060
sV54bfbc640b7b0
p9061
V54ff17ff4a755
p9062
sV54bfbc63c300f
p9063
V54ff17ff4b105
p9064
sV54bfbc7097636
p9065
V54ff180302660
p9066
sV54bfbc8b8a9cd
p9067
V54ff1809d3640
p9068
sV54bfbc764892c
p9069
V54ff1803f0ad6
p9070
sV54bfbc9977f69
p9071
V54ff180e324b1
p9072
sV54bfbc8bb1b1a
p9073
V54ff1809a20da
p9074
sV54bfbc6b47492
p9075
V54ff180177beb
p9076
sV54bfbc796da58
p9077
V54ff180544795
p9078
sV54bfbc7d15042
p9079
V54ff18067c262
p9080
sV54bfbc6840edc
p9081
V54ff18011e83c
p9082
sV54bfbc8c7f7e9
p9083
V54ff1809d2752
p9084
sV54bfbc828f2aa
p9085
V54ff1807ddbb3
p9086
sV54bfbc5e322ed
p9087
V54ff17fe27fa9
p9088
sV54bfbc622b294
p9089
V54ff17ffa3b53
p9090
sV54bfbc87580db
p9091
V54ff180a568b2
p9092
sV54bfbc7de8647
p9093
V54ff1806a875d
p9094
sV54bfbc63edafd
p9095
V54ff17ffd5e8d
p9096
sV54bfbc991fc24
p9097
V54ff180e11909
p9098
sV54bfbc738b092
p9099
V54ff1803f0829
p9100
sV54bfbc5e136ba
p9101
V54ff17fe28461
p9102
sV54bfbc8898b28
p9103
V54ff18094e7bf
p9104
sV54bfbc8c782b9
p9105
V54ff1809d2dff
p9106
sV54bfbc62eb2bb
p9107
V54ff18003c2a1
p9108
sV54bfbc7723a77
p9109
V54ff1804bec51
p9110
sV54bfbc969222b
p9111
V54ff180d165c5
p9112
sV54bfbc7679dd2
p9113
V54ff18048e229
p9114
sV54bfbc863eb48
p9115
V54ff18091a029
p9116
sV54bfbc5e3b2a0
p9117
V54ff17fe2986c
p9118
sV54bfbc8a9b35a
p9119
V54ff180979dd0
p9120
sV54bfbc7f06f24
p9121
V54ff1806ce3fe
p9122
sV54bfbc66bad62
p9123
V54ff18008cc0a
p9124
sV54bfbc6bc0516
p9125
V54ff18014b69e
p9126
sV54bfbc984420e
p9127
V54ff180dd1faa
p9128
sV54bfbc62a553d
p9129
V54ff180013e5f
p9130
sV54bfbc5fc0dbf
p9131
V54ff17fe8cf24
p9132
sV54bfbc6dd0ed7
p9133
V54ff18024563e
p9134
sV54bfbc7f01530
p9135
V54ff1806ce1be
p9136
sV54bfbc6e2f65d
p9137
V54ff180247325
p9138
sV54bfbc8177598
p9139
V54ff18077a812
p9140
sV54bfbc99707cb
p9141
V54ff180e328b9
p9142
sV54bfbc6850df8
p9143
V54ff18014b007
p9144
sV54bfbc5e9e3fe
p9145
V54ff17fe5b5c2
p9146
sV54bfbc5c106b2
p9147
V54ff17fd76a51
p9148
sV54bfbc71f2568
p9149
V54ff180365498
p9150
sV54bfbc862f01a
p9151
V54ff1808b0d8f
p9152
sV54bfbc60aa8cf
p9153
V54ff17fee04c1
p9154
sV54bfbc700f0a3
p9155
V54ff1802d141c
p9156
sV54bfbc70ac77c
p9157
V54ff180301eac
p9158
sV54bfbc945b6a0
p9159
V54ff180cafc45
p9160
sV54bfbc7975aa3
p9161
V54ff180544be7
p9162
sV54bfbc633cb7b
p9163
V54ff17ff71c25
p9164
sV54bfbc78954be
p9165
V54ff18052a7cd
p9166
sV54bfbc9231c8b
p9167
V54ff180c0de30
p9168
sV54bfbc8bce255
p9169
V54ff180978d8b
p9170
sV54bfbc945d527
p9171
V54ff180cb01c6
p9172
sV54bfbc5f11d77
p9173
V54ff17fe5be0e
p9174
sV54bfbc5e0b513
p9175
V54ff17fde793f
p9176
sV54bfbc88b86d0
p9177
V54ff1809a0afd
p9178
sV54bfbc71b10c0
p9179
V54ff180364274
p9180
sV54bfbc88a8d42
p9181
V54ff18094f16c
p9182
sV54bfbc98a69b0
p9183
V54ff180f0ef4d
p9184
sV54bfbc8b925f7
p9185
V54ff1809d43eb
p9186
sV54bfbc6b4317c
p9187
V54ff180177598
p9188
sV54bfbc67a07a6
p9189
V54ff1800e6a3f
p9190
sV54bfbc6cb6b9e
p9191
V54ff1801ea01c
p9192
sV54bfbc6928720
p9193
V54ff1800bb910
p9194
sV54bfbc75ecba0
p9195
V54ff1803efa3d
p9196
sV54bfbc5d3169d
p9197
V54ff17fde7417
p9198
sV54bfbc67b1224
p9199
V54ff18014bacd
p9200
sV54bfbc6eaa055
p9201
V54ff18026e158
p9202
sV54bfbc6741a9e
p9203
V54ff18011c86c
p9204
sV54bfbc9697efa
p9205
V54ff180d3e89b
p9206
sV54bfbc710d030
p9207
V54ff1803336cb
p9208
sV54bfbc660ef1e
p9209
V54ff1800626d0
p9210
sV54bfbc79349ed
p9211
V54ff180542ae9
p9212
sV54bfbc67371ff
p9213
V54ff18008ef31
p9214
sV54bfbc849cee1
p9215
V54ff180866bae
p9216
sV54bfbc98df045
p9217
V54ff180e0ff76
p9218
sV54bfbc95d957c
p9219
V54ff180d3f9ac
p9220
sV54bfbc84d7482
p9221
V54ff1808aed9b
p9222
sV54bfbc8aebdab
p9223
V54ff1809a16ea
p9224
sV54bfbc6d59e45
p9225
V54ff180246868
p9226
sV54bfbc9581dfd
p9227
V54ff180d154a0
p9228
sV54bfbc7968624
p9229
V54ff180544458
p9230
sV54bfbc70c2e24
p9231
V54ff1803332d6
p9232
sV54bfbc766f4fc
p9233
V54ff18048f639
p9234
s.