ccollections
defaultdict
p0
(c__builtin__
dict
p1
tp2
Rp3
Vendemicas_rio_de_janeiro
p4
g0
(c__builtin__
int
p5
tp6
Rp7
S'profile'
p8
I1043
sS'assessment'
p9
I403
sS'occurrence'
p10
I16281
sS'taxon'
p11
I1584
ssVoutros
p12
g0
(g5
tp13
Rp14
g8
I2
sg9
I0
sg10
I22
sg11
I25
ssVnovas_especies
p15
g0
(g5
tp16
Rp17
g8
I10
sg9
I7
sg10
I61
sg11
I7
ssVpan_bacia_alto_tocantins
p18
g0
(g5
tp19
Rp20
g8
I10
sg9
I7
sg10
I783
sg11
I34
ssVpan_grao_mogol
p21
g0
(g5
tp22
Rp23
g8
I0
sg9
I0
sg10
I259
sg11
I24
ssVpan_espinhaco_meridional
p24
g0
(g5
tp25
Rp26
g8
I0
sg9
I0
sg10
I8362
sg11
I131
ssVlivro_vermelho_2013
p27
g0
(g5
tp28
Rp29
g8
I5263
sg9
I4617
sg10
I309482
sg11
I15714
ssVplantas_raras_do_cerrado
p30
g0
(g5
tp31
Rp32
g8
I615
sg9
I605
sg10
I14346
sg11
I634
ssVespecies_indicadas
p33
g0
(g5
tp34
Rp35
g8
I34
sg9
I8
sg10
I489
sg11
I67
ssVpublic
p36
g0
(g5
tp37
Rp38
g8
I5263
sg9
I4617
sg10
I309482
sg11
I15714
ss.