ccollections
defaultdict
p0
(c__builtin__
dict
p1
tp2
Rp3
Vendemicas_rio_de_janeiro
p4
g0
(c__builtin__
list
p5
tp6
Rp7
sVoutros
p8
g0
(g5
tp9
Rp10
sVnovas_especies
p11
g0
(g5
tp12
Rp13
sVpan_bacia_alto_tocantins
p14
g0
(g5
tp15
Rp16
sVpan_grao_mogol
p17
g0
(g5
tp18
Rp19
sVpan_espinhaco_meridional
p20
g0
(g5
tp21
Rp22
sVlivro_vermelho_2013
p23
g0
(g5
tp24
Rp25
S'profile'
p26
(lp27
V54ff180bc3c7c
p28
aV54ff1806ee2e8
p29
aV54ff17ff272eb
p30
aV54ff180a326e6
p31
aV54ff1809d1639
p32
aV54ff17fd5450c
p33
aV54ff180dd077c
p34
aV54ff180246614
p35
aV54ff180a30c34
p36
aV54ff17fe28eb2
p37
aV54ff17ffd5b0d
p38
aV54ff180753493
p39
aV54ff180c75da7
p40
aV54ff18026b51e
p41
aV54ff18048e8e3
p42
aV54ff180504610
p43
aV54ff18026c8e0
p44
aV54ff180a0b2c2
p45
aV54ff17fde85d7
p46
aV54ff180dd05df
p47
aV54ff17ff4a16a
p48
aV54ff180b7603b
p49
aV54ff1808b09c4
p50
aV54ff1806cf9fe
p51
aV54ff180d3e949
p52
aV54ff18052a1e0
p53
aV54ff18057bf3c
p54
aV54ff17fdaf938
p55
aV54ff180b763aa
p56
aV54ff1807dc1c3
p57
aV54ff18033474b
p58
aV54ff18039ac62
p59
aV54ff1806529e8
p60
aV54ff17fedff72
p61
aV54ff1805b2fda
p62
aV54ff1802a286e
p63
aV54ff180543d54
p64
aV54ff180e11ce8
p65
aV54ff180cafed9
p66
aV54ff17fdae32d
p67
aV54ff180245370
p68
aV54ff180e119e0
p69
aV54ff18057a851
p70
aV54ff18091938c
p71
aV54ff18026cd77
p72
aV54ff180a561e8
p73
aV54ff1809d40cb
p74
aV54ff18084322d
p75
aV54ff180a55ef9
p76
aV54ff18067c909
p77
aV54ff17feaed39
p78
aV54ff18088c6fd
p79
aV54ff180caf1d3
p80
aV54ff180d3e70b
p81
aV54ff1801a2a24
p82
aV54ff180da6d27
p83
aV54ff1805b2041
p84
aV54ff1801eb1a6
p85
aV54ff180725904
p86
aV54ff1808e07dd
p87
aV54ff1803c4118
p88
aV54ff180e5cbdb
p89
aV54ff180b77113
p90
aV54ff180b77625
p91
aV54ff180b776aa
p92
aV54ff180b7783a
p93
aV54ff180b997f9
p94
aV54ff180b9af60
p95
aV54ff180b9b0b2
p96
aV54ff180bc3ea0
p97
aV54ff1801caa57
p98
aV54ff18084385f
p99
aV54ff1804bf346
p100
aV54ff18048ed7b
p101
aV54ff180752606
p102
aV54ff180e5aca2
p103
aV54ff180c432cc
p104
aV54ff180cb0834
p105
aV54ff180727997
p106
aV54ff18036562d
p107
aV54ff180dd261a
p108
aV54ff17feadb8b
p109
aV54ff180865940
p110
aV54ff180a0d551
p111
aV54ff18097a9e6
p112
aV54ff17ffa4eb0
p113
aV54ff18021c814
p114
aV54ff180a56034
p115
aV54ff180edbbb5
p116
aV54ff1803c58b2
p117
aV54ff1808b1d2a
p118
aV54ff180d17e3f
p119
aV54ff180d669b5
p120
aV54ff180a3251e
p121
aV54ff1802d0a51
p122
aV54ff18011dd73
p123
aV54ff1807274a0
p124
aV54ff1806ce865
p125
aV54ff180b4fc8b
p126
aV54ff180b2164a
p127
aV54ff180b771ba
p128
aV54ff1808653da
p129
aV54ff18017728c
p130
aV54ff18097843d
p131
aV54ff18026ce49
p132
aV54ff180979531
p133
aV54ff17fdad3fd
p134
aV54ff180842d38
p135
aV54ff17ffd57eb
p136
aV54ff18097932e
p137
aV54ff17fde5552
p138
aV54ff180eb2441
p139
aV54ff18003cf26
p140
aV54ff1806a73b0
p141
aV54ff180b51726
p142
aV54ff1809d285c
p143
aV54ff18011eae9
p144
aV54ff18026cf1c
p145
aV54ff1802f3c6c
p146
aV54ff1805064e2
p147
aV54ff1805423c6
p148
aV54ff180818953
p149
aV54ff180cb00c4
p150
aV54ff180b777b5
p151
aV54ff180b77a02
p152
aV54ff180b99af9
p153
aV54ff180b99cbe
p154
aV54ff180b9b00b
p155
aV54ff180b9b15c
p156
aV54ff180b9b214
p157
aV54ff180ce4d33
p158
aV54ff180ce50a1
p159
aV54ff1802d080d
p160
aV54ff180b1fe9b
p161
aV54ff18057c154
p162
aV54ff180a319e1
p163
aV54ff18048fdfa
p164
aV54ff1808de789
p165
aV54ff18011d25d
p166
aV54ff18052b587
p167
aV54ff17fde887e
p168
aV54ff180c0c1c0
p169
aV54ff180064857
p170
aV54ff180864b83
p171
aV54ff1801ca527
p172
aV54ff17fedf2e2
p173
aV54ff18021c92f
p174
aV54ff180c7572c
p175
aV54ff1801c9ea9
p176
aV54ff1808424e3
p177
aV54ff17ff4ca59
p178
aV54ff180842820
p179
aV54ff180dd1c2f
p180
aV54ff180edc974
p181
aV54ff180f0eba4
p182
aV54ff1806cf4f1
p183
aV54ff180b76d1e
p184
aV54ff1802f3fdf
p185
aV54ff18081aaac
p186
aV54ff180b762a9
p187
aV54ff180c0c90c
p188
aV54ff180e83ed1
p189
aV54ff180da74dc
p190
aV54ff180728078
p191
aV54ff180542eef
p192
aV54ff180edafc9
p193
aV54ff18097a21b
p194
aV54ff180c0e779
p195
aV54ff180b514a0
p196
aV54ff1805f17e7
p197
aV54ff1802d1524
p198
aV54ff180b76703
p199
aV54ff180751e79
p200
aV54ff1802a2640
p201
aV54ff1802f3d1f
p202
aV54ff18036303c
p203
aV54ff180529c3e
p204
aV54ff180529e5a
p205
aV54ff180542313
p206
aV54ff18026c503
p207
aV54ff180b76c81
p208
aV54ff18077b092
p209
aV54ff1800e60dc
p210
aV54ff18091c0d1
p211
aV54ff180af224e
p212
aV54ff180e33826
p213
aV54ff1803010b2
p214
aV54ff180e5cab0
p215
aV54ff180d402f2
p216
aV54ff1806ef44e
p217
aV54ff180544fb7
p218
aV54ff180a321c9
p219
aV54ff1809d1ff6
p220
aV54ff180eb19c0
p221
aV54ff1800e5511
p222
aV54ff17fe5addf
p223
aV54ff18036467a
p224
aV54ff17ff4a253
p225
aV54ff1804c0282
p226
aV54ff18014cc09
p227
aV54ff180b51a2a
p228
aV54ff18067c52b
p229
aV54ff180300bd3
p230
aV54ff17fe281a3
p231
aV54ff18003c332
p232
aV54ff1808af20a
p233
aV54ff17fe5b2b4
p234
aV54ff18081a8f1
p235
aV54ff18091a62d
p236
aV54ff180ac95d8
p237
aV54ff1801eb87c
p238
aV54ff17fd53ada
p239
aV54ff180d3f541
p240
aV54ff18054555c
p241
aV54ff180b4f8e2
p242
aV54ff18097983a
p243
aV54ff180af33d8
p244
aV54ff18075415f
p245
aV54ff1807dbd9f
p246
aV54ff1803c4080
p247
aV54ff1806cf5ec
p248
aV54ff180b9a068
p249
aV54ff1800e739c
p250
aV54ff180506b44
p251
aV54ff17fe5b7a7
p252
aV54ff1807dd5a4
p253
aV54ff180d65ef6
p254
aV54ff18067ac27
p255
aV54ff18033459e
p256
aV54ff17ffd45e7
p257
aV54ff18094d8dd
p258
aV54ff18008dd1a
p259
aV54ff180442be8
p260
aV54ff180b75e0f
p261
aV54ff180c73ff9
p262
aV54ff1800e50fe
p263
aV54ff1809d1b32
p264
aV54ff18088b126
p265
aV54ff180bc416c
p266
aV54ff1800bca12
p267
aV54ff180c74925
p268
aV54ff1807528c5
p269
aV54ff180a560c8
p270
aV54ff180eb1009
p271
aV54ff17fe8d5cf
p272
aV54ff17fe8cd56
p273
aV54ff180818e61
p274
aV54ff180b51e09
p275
aV54ff180727e4c
p276
aV54ff1803c47bd
p277
aV54ff180b21ce0
p278
aV54ff180d3fa3b
p279
aV54ff180867143
p280
aV54ff180b9b6e5
p281
aV54ff180bc49bd
p282
aV54ff180843c4e
p283
aV54ff18067c010
p284
aV54ff1804beac3
p285
aV54ff180c0d368
p286
aV54ff18026db18
p287
aV54ff1803c5e62
p288
aV54ff18057afaa
p289
aV54ff180a55fc7
p290
aV54ff180177135
p291
aV54ff1801a2e85
p292
aV54ff180bc22bb
p293
aV54ff180b509e3
p294
aV54ff180caed0c
p295
aV54ff18086736a
p296
aV54ff180eda6f7
p297
aV54ff1809a1775
p298
aV54ff180dd26b6
p299
aV54ff1803ee715
p300
aV54ff180b1eeab
p301
aV54ff180d15d37
p302
aV54ff18086564a
p303
aV54ff18026c5ff
p304
aV54ff18048e804
p305
aV54ff1807de039
p306
aV54ff180c41a6b
p307
aV54ff180c73ab6
p308
aV54ff180843027
p309
aV54ff18021be3f
p310
aV54ff1806ce4b6
p311
aV54ff180e5ae4d
p312
aV54ff17ffa4331
p313
aV54ff1801e8c71
p314
aV54ff180a31663
p315
aV54ff1807de131
p316
aV54ff17fe27811
p317
aV54ff17fdae5d4
p318
aV54ff180e11fba
p319
aV54ff180726eee
p320
aV54ff180c41f87
p321
aV54ff180a85633
p322
aV54ff180e11dbc
p323
aV54ff180edab3e
p324
aV54ff1808af598
p325
aV54ff1808b002c
p326
aV54ff1808e0af6
p327
aV54ff18067c198
p328
aV54ff18021daeb
p329
aV54ff180b50afb
p330
aV54ff180d3f2ac
p331
aV54ff180e836fa
p332
aV54ff180e122d0
p333
aV54ff180d3fead
p334
aV54ff180e86318
p335
aV54ff180818886
p336
aV54ff180b20163
p337
aV54ff180ac9753
p338
aV54ff180a0b1a8
p339
aV54ff180c44688
p340
aV54ff18094f8e9
p341
aV54ff180a325a5
p342
aV54ff1803f0b4f
p343
aV54ff180b210ed
p344
aV54ff180b21239
p345
aV54ff180b21347
p346
aV54ff180b7724f
p347
aV54ff180b772d5
p348
aV54ff180b77491
p349
aV54ff180b77509
p350
aV54ff180b99bf1
p351
aV54ff180b9a786
p352
aV54ff1803992f5
p353
aV54ff180b9a83c
p354
aV54ff17fdaf652
p355
aV54ff180754057
p356
aV54ff17ff70c37
p357
aV54ff1809788b5
p358
aV54ff18094e492
p359
aV54ff1800bb7e5
p360
aV54ff1809a200e
p361
aV54ff18003c5ea
p362
aV54ff180da6288
p363
aV54ff180867453
p364
aV54ff180c736ab
p365
aV54ff180edb532
p366
aV54ff180175f0d
p367
aV54ff1806ce0e4
p368
aV54ff180c448f2
p369
aV54ff180a579d8
p370
aV54ff1801eae1b
p371
aV54ff1806a718b
p372
aV54ff180edaa6e
p373
aV54ff180b9aeb1
p374
aV54ff180bc3d74
p375
aV54ff180a57bd8
p376
aV54ff18052b6ec
p377
aV54ff1806a7079
p378
aV54ff17fdaedd4
p379
aV54ff180176dc8
p380
aV54ff180725d36
p381
aV54ff180d16775
p382
aV54ff1809d0bc1
p383
aV54ff1803c5502
p384
aV54ff180362e9b
p385
aV54ff18021d898
p386
aV54ff180b50588
p387
aV54ff17fe5aa3a
p388
aV54ff18057e03c
p389
aV54ff180064220
p390
aV54ff1806a93c4
p391
aV54ff17fd750a7
p392
aV54ff180e342ea
p393
aV54ff1808dedb9
p394
aV54ff1803c5953
p395
aV54ff1806cdbe8
p396
aV54ff180e330a0
p397
aV54ff180b2041a
p398
aV54ff1801ea917
p399
aV54ff180c0d6ad
p400
aV54ff1806cdf25
p401
aV54ff1802a2520
p402
aV54ff17fdad054
p403
aV54ff17feae290
p404
aV54ff180b9a6ea
p405
aV54ff18048f2cd
p406
aV54ff18008e881
p407
aV54ff18003d29f
p408
aV54ff180da6e4e
p409
aV54ff180a0bb69
p410
aV54ff1806a727d
p411
aV54ff1804bf7f2
p412
aV54ff180dd15fc
p413
aV54ff180caf58a
p414
aV54ff180bc3734
p415
aV54ff1805f1380
p416
aV54ff18065459f
p417
aV54ff17fe27a35
p418
aV54ff180919892
p419
aV54ff17fde8727
p420
aV54ff180a57a67
p421
aV54ff18039a44a
p422
aV54ff18048e494
p423
aV54ff180b4f44d
p424
aV54ff18008f2eb
p425
aV54ff17fedeab9
p426
aV54ff1802a29a7
p427
aV54ff180654b03
p428
aV54ff1808df973
p429
aV54ff1804c016f
p430
aV54ff17fedf3d6
p431
aV54ff180a0c8fd
p432
aV54ff1809a0883
p433
aV54ff180ce5c85
p434
aV54ff17fd53f75
p435
aV54ff17fd54db2
p436
aV54ff18091a815
p437
aV54ff1807db686
p438
aV54ff18048ec71
p439
aV54ff1809a1240
p440
aV54ff18057c558
p441
aV54ff1809d2b12
p442
aV54ff1801eb6a0
p443
aV54ff18011ebbe
p444
aV54ff180e32d8a
p445
aV54ff180b9a9c1
p446
aV54ff180818fe2
p447
aV54ff1808ddedc
p448
aV54ff180778cb1
p449
aV54ff180a31218
p450
aV54ff18067bb28
p451
aV54ff17ff4a387
p452
aV54ff180d3f16d
p453
aV54ff17fde53af
p454
aV54ff17feafb5c
p455
aV54ff1805427b4
p456
aV54ff1806ef215
p457
aV54ff180edb953
p458
aV54ff180af36c1
p459
aV54ff1801ea2ef
p460
aV54ff17fd541fe
p461
aV54ff1806eeb6c
p462
aV54ff180cb0525
p463
aV54ff18008f846
p464
aV54ff180b7632d
p465
aV54ff17fdaf2d7
p466
aV54ff1800bd1f7
p467
aV54ff180d66282
p468
aV54ff17ff4c4c3
p469
aV54ff180a31f74
p470
aV54ff1800e4443
p471
aV54ff1808dfc7e
p472
aV54ff1804bf255
p473
aV54ff180442407
p474
aV54ff180b20845
p475
aV54ff180333594
p476
aV54ff180864905
p477
aV54ff180cae595
p478
aV54ff1804be374
p479
aV54ff1802a452c
p480
aV54ff18052ab55
p481
aV54ff1808b1ec9
p482
aV54ff18088c86c
p483
aV54ff1806ef55c
p484
aV54ff18091b9e3
p485
aV54ff180545a4f
p486
aV54ff180e34054
p487
aV54ff18057d7d1
p488
aV54ff180e838b3
p489
aV54ff180e33dfb
p490
aV54ff17fe5baf3
p491
aV54ff17ff70b06
p492
aV54ff1808df243
p493
aV54ff18026c70b
p494
aV54ff180a3212a
p495
aV54ff1807521e4
p496
aV54ff180300d02
p497
aV54ff17fdadf07
p498
aV54ff180467052
p499
aV54ff180c41bf5
p500
aV54ff180b206f8
p501
aV54ff180466c50
p502
aV54ff180e11679
p503
aV54ff18097a139
p504
aV54ff180eda830
p505
aV54ff1803344f7
p506
aV54ff1807522c0
p507
aV54ff1806cfbd8
p508
aV54ff180a32aa7
p509
aV54ff1803347e4
p510
aV54ff180818579
p511
aV54ff180a0ab47
p512
aV54ff180c41d38
p513
aV54ff180a31b94
p514
aV54ff180cae32d
p515
aV54ff18067b1fc
p516
aV54ff180b76eed
p517
aV54ff180b76f71
p518
aV54ff180b76ff5
p519
aV54ff180b77082
p520
aV54ff180b77354
p521
aV54ff180b77405
p522
aV54ff180b77599
p523
aV54ff180c0cdf6
p524
aV54ff17ff718c1
p525
aV54ff180dd0f57
p526
aV54ff180af34ac
p527
aV54ff18011e41b
p528
aV54ff1807db785
p529
aV54ff17fd53809
p530
aV54ff1804bfb74
p531
aV54ff1809d3ad3
p532
aV54ff1801e9222
p533
aV54ff1807dd46a
p534
aV54ff18067bf66
p535
aV54ff180865c40
p536
aV54ff18091be7b
p537
aV54ff18077ad33
p538
aV54ff17fd54625
p539
aV54ff180e5c832
p540
aV54ff180754401
p541
aV54ff180753f15
p542
aV54ff1808b0899
p543
aV54ff18011c943
p544
aV54ff180a575bd
p545
aV54ff1809a23c3
p546
aV54ff180b77727
p547
aV54ff180b778bf
p548
aV54ff180b999fd
p549
aV54ff180b9a35e
p550
aV54ff180bc3fa2
p551
aV54ff180bc40a1
p552
aV54ff180c43096
p553
aV54ff1804bfda9
p554
aV54ff1809d3013
p555
aV54ff18008cf7d
p556
aV54ff17ff27add
p557
aV54ff1800e5878
p558
aV54ff180edb9fc
p559
aV54ff1806cf15a
p560
aV54ff180da779c
p561
aV54ff180c734e9
p562
aV54ff1808b0ae1
p563
aV54ff1803019ac
p564
aV54ff17fde7c76
p565
aV54ff180a0b603
p566
aV54ff1803ee87b
p567
aV54ff1809d12cd
p568
aV54ff1807269b5
p569
aV54ff180cae0ff
p570
aV54ff180a0c82c
p571
aV54ff1807797d7
p572
aV54ff1800bd680
p573
aV54ff180300116
p574
aV54ff17fde5f3c
p575
aV54ff180843d0b
p576
aV54ff1808dffcf
p577
aV54ff180dd1b88
p578
aV54ff180dd0d75
p579
aV54ff18072672f
p580
aV54ff18067c493
p581
aV54ff180919f32
p582
aV54ff1809a1073
p583
aV54ff1809d3506
p584
aV54ff17fdad8b6
p585
aV54ff1800e5998
p586
aV54ff180b51009
p587
aV54ff1808b166c
p588
aV54ff18077995d
p589
aV54ff180a30ebf
p590
aV54ff180a56289
p591
aV54ff18091ab3b
p592
aV54ff18026c026
p593
aV54ff180f0ed3a
p594
aV54ff1805b1732
p595
aV54ff180a32a0f
p596
aV54ff180c75f65
p597
aV54ff1806eefb8
p598
aV54ff1807de848
p599
aV54ff180b1ef93
p600
aV54ff180a56768
p601
aV54ff1806ce92b
p602
aV54ff180e12232
p603
aV54ff18026d683
p604
aV54ff1808df4f6
p605
aV54ff180c41921
p606
aV54ff18054259e
p607
aV54ff1805426b1
p608
aV54ff180e33597
p609
aV54ff17fe27095
p610
aV54ff18067bea0
p611
aV54ff1807dd110
p612
aV54ff180c43ff5
p613
aV54ff180dd09d6
p614
aV54ff180b4f693
p615
aV54ff180a3262c
p616
aV54ff1804be4af
p617
aV54ff1807dba18
p618
aV54ff1809d4003
p619
aV54ff18006457b
p620
aV54ff18026c413
p621
aV54ff18091a54e
p622
aV54ff1803c42bb
p623
aV54ff1805f0e93
p624
aV54ff180d16b73
p625
aV54ff1800be06e
p626
aV54ff18021dd15
p627
aV54ff17ffd59f3
p628
aV54ff180362a2c
p629
aV54ff18011da97
p630
aV54ff180e5d0b9
p631
aV54ff180542c4f
p632
aV54ff180d3f219
p633
aV54ff1802a65d5
p634
aV54ff180cafa4e
p635
aV54ff18008eff7
p636
aV54ff180b7620a
p637
aV54ff17fd54286
p638
aV54ff17fe29e20
p639
aV54ff1803343ca
p640
aV54ff180a31aa1
p641
aV54ff180174d42
p642
aV54ff18057d617
p643
aV54ff180653861
p644
aV54ff180363706
p645
aV54ff17ffd6ac3
p646
aV54ff1809d2329
p647
aV54ff18094f6ac
p648
aV54ff18094fbcf
p649
aV54ff180725f71
p650
aV54ff180818c32
p651
aV54ff1808df13f
p652
aV54ff17ffd4cc5
p653
aV54ff1808de698
p654
aV54ff1800bc81f
p655
aV54ff180818db2
p656
aV54ff180b2188e
p657
aV54ff180d16a39
p658
aV54ff180421d3f
p659
aV54ff17fe5b50c
p660
aV54ff18008d346
p661
aV54ff1809d3f5d
p662
aV54ff1807dbc67
p663
aV54ff180618a2c
p664
aV54ff1809538e4
p665
aV54ff180c74cd4
p666
aV54ff180751d64
p667
aV54ff1806ee932
p668
aV54ff180843702
p669
aV54ff180b9a600
p670
aV54ff17fe28c20
p671
aV54ff1806a6fa2
p672
aV54ff180334218
p673
aV54ff18067aab5
p674
aV54ff180865b75
p675
aV54ff1800e6b6e
p676
aV54ff180727857
p677
aV54ff17fde8a34
p678
aV54ff180d660d9
p679
aV54ff180842f7d
p680
aV54ff180b9b632
p681
aV54ff18017620c
p682
aV54ff180754248
p683
aV54ff17fd76524
p684
aV54ff180a5615b
p685
aV54ff18026d758
p686
aV54ff18021c318
p687
aV54ff18094ef42
p688
aV54ff180e1032a
p689
aV54ff18008edce
p690
aV54ff180a0beea
p691
aV54ff18011c595
p692
aV54ff180eda945
p693
aV54ff180b4fe4c
p694
aV54ff18008d467
p695
aV54ff180b9bfe8
p696
aV54ff180b220e1
p697
aV54ff1804bf6f3
p698
aV54ff180c753d3
p699
aV54ff180b50164
p700
aV54ff17fde7b80
p701
aV54ff180653432
p702
aV54ff1808af017
p703
aV54ff1806ef7a2
p704
aV54ff1809d14a5
p705
aV54ff18052a0d0
p706
aV54ff1803f0926
p707
aV54ff180544e38
p708
aV54ff180a320a8
p709
aV54ff180c44530
p710
aV54ff17fde8179
p711
aV54ff1809a12cf
p712
aV54ff1803ee357
p713
aV54ff1808b18de
p714
aV54ff180d6333a
p715
aV54ff180b4f7c4
p716
aV54ff1809a0f4e
p717
aV54ff1800bc00c
p718
aV54ff18052a142
p719
aV54ff17ffd610c
p720
aV54ff18057cd68
p721
aV54ff1801c978f
p722
aV54ff17fde6ead
p723
aV54ff180a0b07e
p724
aV54ff180b75ec4
p725
aV54ff18052a8e3
p726
aV54ff180422878
p727
aV54ff18021b19c
p728
aV54ff18052b48f
p729
aV54ff180a3174d
p730
aV54ff18077b4f0
p731
aV54ff180c75559
p732
aV54ff1807dc9e1
p733
aV54ff1800e4570
p734
aV54ff1807dc367
p735
aV54ff1806a77b8
p736
aV54ff1800bda71
p737
aV54ff180a0c655
p738
aV54ff180a0c421
p739
aV54ff18088bd15
p740
aV54ff1808b0706
p741
aV54ff1809a0a7f
p742
aV54ff180c44367
p743
aV54ff17fee0ae4
p744
aV54ff1806cd59a
p745
aV54ff180a57b3c
p746
aV54ff17fde5b7d
p747
aV54ff180753336
p748
aV54ff1807dc8cf
p749
aV54ff180e5c1c8
p750
aV54ff18008d559
p751
aV54ff1803652f1
p752
aV54ff180543594
p753
aV54ff1803649d6
p754
aV54ff180064bab
p755
aV54ff180246410
p756
aV54ff1806ce5a4
p757
aV54ff18044111d
p758
aV54ff18075254b
p759
aV54ff1808dfa76
p760
aV54ff1808de25d
p761
aV54ff180a5646b
p762
aV54ff180a30af4
p763
aV54ff180cb0e64
p764
aV54ff1802a62a6
p765
aV54ff1803004cb
p766
aV54ff180e850a8
p767
aV54ff1801a3182
p768
aV54ff17ffa417e
p769
aV54ff18052aff1
p770
aV54ff1808646c9
p771
aV54ff18014c928
p772
aV54ff18075364e
p773
aV54ff17fedee7f
p774
aV54ff18039aac1
p775
aV54ff180d1823a
p776
aV54ff18052b991
p777
aV54ff18014af4e
p778
aV54ff180e33424
p779
aV54ff18011d983
p780
aV54ff180c75983
p781
aV54ff18091a171
p782
aV54ff180bc2957
p783
aV54ff1802a63fc
p784
aV54ff180300382
p785
aV54ff180d3f4ae
p786
aV54ff180e840d2
p787
aV54ff17fd53e64
p788
aV54ff18008cd36
p789
aV54ff17fe29b14
p790
aV54ff180b1fb53
p791
aV54ff18088aee7
p792
aV54ff1800bc0fb
p793
aV54ff18011e155
p794
aV54ff180177d02
p795
aV54ff1805b2339
p796
aV54ff180866386
p797
aV54ff1808193d0
p798
aV54ff180ce5db5
p799
aV54ff180caf484
p800
aV54ff180bc2a84
p801
aV54ff180a0b97a
p802
aV54ff1806ef717
p803
aV54ff18052b1a9
p804
aV54ff180e5c31c
p805
aV54ff17ffa4266
p806
aV54ff1800e5d33
p807
aV54ff17fde7a2c
p808
aV54ff180245a5d
p809
aV54ff18026c7ed
p810
aV54ff1807dc6cd
p811
aV54ff180b9bbbd
p812
aV54ff180b9a23d
p813
aV54ff1800bdf6c
p814
aV54ff1806ef341
p815
aV54ff180843b9e
p816
aV54ff180b9a44c
p817
aV54ff17ff72193
p818
aV54ff180465945
p819
aV54ff18021c1fc
p820
aV54ff1808e04b3
p821
aV54ff17fee01d8
p822
aV54ff1806541c9
p823
aV54ff180d66888
p824
aV54ff180754604
p825
aV54ff180af1675
p826
aV54ff1807530bc
p827
aV54ff1806a6d2b
p828
aV54ff17fead326
p829
aV54ff1805b3728
p830
aV54ff18057c3a0
p831
aV54ff18057c8d2
p832
aV54ff1808e09ce
p833
aV54ff1809d323a
p834
aV54ff1807271ac
p835
aV54ff17fee0757
p836
aV54ff180a5632f
p837
aV54ff180c0cb42
p838
aV54ff18057be0d
p839
aV54ff1808df3bb
p840
aV54ff18094e6ce
p841
aV54ff1809a1c68
p842
aV54ff180725b80
p843
aV54ff1803c4511
p844
aV54ff180c44262
p845
aV54ff17fe8b611
p846
aV54ff18021e2b2
p847
aV54ff180cadc7c
p848
aV54ff180779704
p849
aV54ff180e11aa7
p850
aV54ff180eda15f
p851
aV54ff18039ae2a
p852
aV54ff180529f39
p853
aV54ff1809a1aa0
p854
aV54ff180b9abeb
p855
aV54ff1800e5607
p856
aV54ff17fe8b23e
p857
aV54ff1801ca0e8
p858
aV54ff180e12050
p859
aV54ff18008f5df
p860
aV54ff180a0c579
p861
aV54ff180b99e8c
p862
aV54ff1806ef855
p863
aV54ff180a0be36
p864
aV54ff17ff26d5b
p865
aV54ff17feded78
p866
aV54ff1807ddf5f
p867
aV54ff1803ee5cc
p868
aV54ff180bc37fc
p869
aV54ff17fdada99
p870
aV54ff180727c7c
p871
aV54ff1809d4308
p872
aV54ff1805b156a
p873
aV54ff17feaebd2
p874
aV54ff180dd0e2b
p875
aV54ff1801ea740
p876
aV54ff18008f159
p877
aV54ff18008ce7d
p878
aV54ff1807254fa
p879
aV54ff18008d93e
p880
aV54ff180c74e0b
p881
aV54ff180af214e
p882
aV54ff1808aec91
p883
aV54ff180b50376
p884
aV54ff18088ad72
p885
aV54ff18014ccef
p886
aV54ff1806ceec1
p887
aV54ff18067c681
p888
aV54ff180421b13
p889
aV54ff1801eb5db
p890
aV54ff180caee41
p891
aV54ff18067b5d1
p892
aV54ff180865eee
p893
aV54ff180e343b4
p894
aV54ff18008de24
p895
aV54ff180caf7be
p896
aV54ff1808df714
p897
aV54ff180b7656a
p898
aV54ff180b20f33
p899
aV54ff180300f6d
p900
aV54ff180a56948
p901
aV54ff18077a24f
p902
aV54ff1803ef733
p903
aV54ff1806cd906
p904
aV54ff180466790
p905
aV54ff18086574c
p906
aV54ff180c73072
p907
aV54ff180398b6f
p908
aV54ff180064e0b
p909
aV54ff18021bf4c
p910
aV54ff1806cd9e4
p911
aV54ff1805b1bd4
p912
aV54ff18024726d
p913
aV54ff180301c4b
p914
aV54ff180b9beda
p915
aV54ff1806cf235
p916
aV54ff1801cadba
p917
aV54ff180864c6f
p918
aV54ff18094e5c9
p919
aV54ff180bc2ef6
p920
aV54ff180da75db
p921
aV54ff17fedf720
p922
aV54ff1809a1dbf
p923
aV54ff180843ad9
p924
aV54ff180b20e0c
p925
aV54ff180d63533
p926
aV54ff180c0d94b
p927
aV54ff18057ae3f
p928
aV54ff180d63929
p929
aV54ff180a324a2
p930
aV54ff18021c5d1
p931
aV54ff18086664e
p932
aV54ff1806ee749
p933
aV54ff180544ac5
p934
aV54ff180842c7a
p935
aV54ff180177634
p936
aV54ff180b75f98
p937
aV54ff1803efe3c
p938
aV54ff180c7510a
p939
aV54ff180a57514
p940
aV54ff17fdaefda
p941
aV54ff1807529b3
p942
aV54ff18039a192
p943
aV54ff18067b91b
p944
aV54ff1806efa6c
p945
aV54ff17fd54a4c
p946
aV54ff17ff4c081
p947
aV54ff1807de900
p948
aV54ff18057a9fd
p949
aV54ff180e5c6f3
p950
aV54ff18067ae55
p951
aV54ff1800bcbd3
p952
aV54ff18054418c
p953
aV54ff18036489f
p954
aV54ff18094e2af
p955
aV54ff18067bc88
p956
aV54ff1809782c5
p957
aV54ff180a0b3bf
p958
aV54ff18003d1aa
p959
aV54ff1806ede31
p960
aV54ff18021d25e
p961
aV54ff17fead058
p962
aV54ff1809d2978
p963
aV54ff180842163
p964
aV54ff18097ac10
p965
aV54ff180246dd8
p966
aV54ff180751f56
p967
aV54ff17feaef65
p968
aV54ff180545c69
p969
aV54ff17fde8464
p970
aV54ff1801e9a81
p971
aV54ff180919a8a
p972
aV54ff180caf078
p973
aV54ff1806a9448
p974
aV54ff180440d6f
p975
aV54ff180c0d5dc
p976
aV54ff1809a1828
p977
aV54ff17fe27bb5
p978
aV54ff18050642a
p979
aV54ff18026bd0f
p980
aV54ff17fd76c5e
p981
aV54ff18088ae38
p982
aV54ff1808df839
p983
aV54ff17ffa3904
p984
aV54ff1806cfae7
p985
aV54ff17ff287e1
p986
aV54ff18067bdee
p987
aV54ff18057d6da
p988
aV54ff1802a2316
p989
aV54ff180d3fcd8
p990
aV54ff17fedf0a7
p991
aV54ff18021d403
p992
aV54ff18011e53d
p993
aV54ff1808183b3
p994
aV54ff180c74a24
p995
aV54ff1800643d4
p996
aV54ff180a5664a
p997
aV54ff180a3296c
p998
aV54ff18067b378
p999
aV54ff180c75aec
p1000
aV54ff18026cabf
p1001
aV54ff18039a94b
p1002
aV54ff18057cf4e
p1003
aV54ff180c43b07
p1004
aV54ff180caef68
p1005
aV54ff180dd1e3f
p1006
aV54ff180c4380b
p1007
aV54ff18088acb2
p1008
aV54ff17fdadfc6
p1009
aV54ff17fe8d2f8
p1010
aV54ff180a57d6d
p1011
aV54ff1803ee45d
p1012
aV54ff1803007d3
p1013
aV54ff1808de0a7
p1014
aV54ff180b507b6
p1015
aV54ff180b21516
p1016
aV54ff17fee05e1
p1017
aV54ff18046710e
p1018
aV54ff1803f0998
p1019
aV54ff1802452d5
p1020
aV54ff180819ba4
p1021
aV54ff17feae96a
p1022
aV54ff180b521f0
p1023
aV54ff180e5bc1f
p1024
aV54ff1801ea9e6
p1025
aV54ff17ff70b9d
p1026
aV54ff18021da15
p1027
aV54ff18021cc76
p1028
aV54ff18057bbcb
p1029
aV54ff17fdad1af
p1030
aV54ff1800e6fc7
p1031
aV54ff1801ea44f
p1032
aV54ff17feafddf
p1033
aV54ff18065408c
p1034
aV54ff18048f9d1
p1035
aV54ff1809d30e5
p1036
aV54ff180b77963
p1037
aV54ff180b99912
p1038
aV54ff1809d41a8
p1039
aV54ff180e12393
p1040
aV54ff1806cd772
p1041
aV54ff1807ccfd9
p1042
aV54ff18094facd
p1043
aV54ff17fe27344
p1044
aV54ff18067b6bc
p1045
aV54ff18011d70a
p1046
aV54ff17fdafa2a
p1047
aV54ff1802d091a
p1048
aV54ff180da76b1
p1049
aV54ff18026d8e4
p1050
aV54ff180726570
p1051
aV54ff18077a72d
p1052
aV54ff180e331ce
p1053
aV54ff1805448e4
p1054
aV54ff17fdaf0fb
p1055
aV54ff1806cda96
p1056
aV54ff180dd28d2
p1057
aV54ff180a0c2d8
p1058
aV54ff17fdafb09
p1059
aV54ff180eb07a2
p1060
aV54ff180301b84
p1061
aV54ff1800bdc9f
p1062
aV54ff17fdafc12
p1063
aV54ff180b9ab34
p1064
aV54ff1801c8f28
p1065
aV54ff180177acd
p1066
aV54ff180726c4f
p1067
aV54ff180b21dc4
p1068
aV54ff180953edb
p1069
aV54ff18094f5dc
p1070
aV54ff180d648ee
p1071
aV54ff180b21a77
p1072
aV54ff180543108
p1073
aV54ff180504beb
p1074
aV54ff180e3413b
p1075
aV54ff18075381b
p1076
aV54ff180174e69
p1077
aV54ff180246fba
p1078
aV54ff180eb03d5
p1079
aV54ff18026dcf6
p1080
aV54ff180d64526
p1081
aV54ff18094dd50
p1082
aV54ff17fe5b348
p1083
aV54ff17fe5c59e
p1084
aV54ff180a31d8e
p1085
aV54ff1809a1109
p1086
aV54ff1801779fd
p1087
aV54ff18088ab85
p1088
aV54ff180a0cdf2
p1089
aV54ff18046693f
p1090
aV54ff18003bd89
p1091
aV54ff18024691e
p1092
aV54ff180dd206c
p1093
aV54ff18088bf13
p1094
aV54ff1800158dc
p1095
aV54ff180edac57
p1096
aV54ff180cad6e1
p1097
aV54ff18046639c
p1098
aV54ff180b99f5d
p1099
aV54ff17ffa3a31
p1100
aV54ff1809a0e88
p1101
aV54ff1808b1f8a
p1102
aV54ff1809d1a2d
p1103
aV54ff180a32c6a
p1104
aV54ff1800e5c16
p1105
aV54ff180a32012
p1106
aV54ff1807275ad
p1107
aV54ff180753a7d
p1108
aV54ff17ffa3d5f
p1109
aV54ff1804227e6
p1110
aV54ff180d15faf
p1111
aV54ff17fe8d53b
p1112
aV54ff1809d266e
p1113
aV54ff180ce4319
p1114
aV54ff1808dfb72
p1115
aV54ff1805b35c8
p1116
aV54ff1805f11ab
p1117
aV54ff1809d423e
p1118
aV54ff1809d3e48
p1119
aV54ff180cae7db
p1120
aV54ff180a576ce
p1121
aV54ff1806a8fe1
p1122
aV54ff180b512e7
p1123
aV54ff180da73ec
p1124
aV54ff18021e6e3
p1125
aV54ff1809a0d6e
p1126
aV54ff18021bc66
p1127
aV54ff18088b4dc
p1128
aV54ff180dd16d0
p1129
aV54ff180b517df
p1130
aV54ff180e1105e
p1131
aV54ff1801eafe7
p1132
aV54ff180a57647
p1133
aV54ff17fd7697d
p1134
aV54ff180b202a1
p1135
aV54ff180c74808
p1136
aV54ff1800e4880
p1137
aV54ff180247104
p1138
aV54ff180b76e57
p1139
aV54ff180b9a8fc
p1140
aV54ff1808b1c22
p1141
aV54ff180841d36
p1142
aV54ff180d3e4ff
p1143
aV54ff18081a0b1
p1144
aV54ff1803346bb
p1145
aV54ff180d1688c
p1146
aV54ff18086520c
p1147
aV54ff180725dde
p1148
aV54ff17fde8ceb
p1149
aV54ff1806cebe1
p1150
aV54ff180a572a9
p1151
aV54ff18026ddbc
p1152
aV54ff18077a617
p1153
aV54ff1806cdb34
p1154
aV54ff18001457c
p1155
aV54ff18054429a
p1156
aV54ff180d17ef9
p1157
aV54ff1806ef963
p1158
aV54ff180dd2564
p1159
aV54ff1806cdc9e
p1160
aV54ff180af2bd2
p1161
aV54ff180da673a
p1162
aV54ff17fe5b0b6
p1163
aV54ff180d17baa
p1164
aV54ff18008ebe5
p1165
aV54ff18024705a
p1166
aV54ff1808afab6
p1167
aV54ff180c44bbd
p1168
aV54ff17fdaeb01
p1169
aV54ff18008cab8
p1170
aV54ff1801a4a7d
p1171
aV54ff180727379
p1172
aV54ff180842e01
p1173
aV54ff1804bde5d
p1174
aV54ff180a30fcb
p1175
aV54ff17fd73e72
p1176
aV54ff1800bde81
p1177
aV54ff180d3ec5b
p1178
aV54ff1806cef79
p1179
aV54ff18097a90f
p1180
aV54ff180da6c2c
p1181
aV54ff1800143aa
p1182
aV54ff17fee15d0
p1183
aV54ff180da70e4
p1184
aV54ff1809196b3
p1185
aV54ff180752ffb
p1186
aV54ff17fd539c5
p1187
aV54ff1806ce00a
p1188
aV54ff180cafd77
p1189
aV54ff1809d38b9
p1190
aV54ff17fde5a71
p1191
aV54ff180866c89
p1192
aV54ff180245c6e
p1193
aV54ff1806a8ee6
p1194
aV54ff180c72ef7
p1195
aV54ff17fee0897
p1196
aV54ff18057ca36
p1197
aV54ff180d162ca
p1198
aV54ff17fdaf82e
p1199
aV54ff17fee1c4a
p1200
aV54ff180544cf8
p1201
aV54ff18014ae66
p1202
aV54ff180d3f878
p1203
aV54ff18030135f
p1204
aV54ff18054330b
p1205
aV54ff180d6460a
p1206
aV54ff18065308f
p1207
aV54ff1802466c9
p1208
aV54ff1800e53ea
p1209
aV54ff1809197ad
p1210
aV54ff18006467a
p1211
aV54ff180dd23c4
p1212
aV54ff180725c33
p1213
aV54ff180505fa6
p1214
aV54ff17fde72a9
p1215
aV54ff1809a0904
p1216
aV54ff180dd0cd3
p1217
aV54ff18014b4d5
p1218
aV54ff18057d1f3
p1219
aV54ff1804bf175
p1220
aV54ff1803c3fdd
p1221
aV54ff1808b17c3
p1222
aV54ff18048e0a7
p1223
aV54ff180a0bd5b
p1224
aV54ff180506bde
p1225
aV54ff17fee02eb
p1226
aV54ff18003c53d
p1227
aV54ff18057e46f
p1228
aV54ff180e5d506
p1229
aV54ff1801c8e0a
p1230
aV54ff180819218
p1231
aV54ff180b1ffb8
p1232
aV54ff180a0d474
p1233
aV54ff180bc52f1
p1234
aV54ff1809a1376
p1235
aV54ff18086645b
p1236
aV54ff17fde5691
p1237
aV54ff18094ed85
p1238
aV54ff180365155
p1239
aV54ff180e11345
p1240
aV54ff17fd54c42
p1241
aV54ff18052aa2d
p1242
aV54ff17ff70dc8
p1243
aV54ff180979f69
p1244
aV54ff180e350c0
p1245
aV54ff180441d66
p1246
aV54ff180c737bc
p1247
aV54ff180245b00
p1248
aV54ff180bc3623
p1249
aV54ff180726037
p1250
aV54ff18067c3dc
p1251
aV54ff18014cdc1
p1252
aV54ff1806ee14b
p1253
aV54ff180caffe7
p1254
aV54ff1800bcfb5
p1255
aV54ff1809d1760
p1256
aV54ff180b9c0e2
p1257
aV54ff180c73dfc
p1258
aV54ff180ac9966
p1259
aV54ff18072775f
p1260
aV54ff1800e49a5
p1261
aV54ff18075203b
p1262
aV54ff18048ea0d
p1263
aV54ff1808e02e0
p1264
aV54ff18097a85b
p1265
aV54ff1800e623e
p1266
aV54ff180bc2714
p1267
aV54ff1801a4074
p1268
aV54ff18048d436
p1269
aV54ff180e85e94
p1270
aV54ff18075278f
p1271
aV54ff1807dcb3d
p1272
aV54ff1803c4c4d
p1273
aV54ff180a0afac
p1274
aV54ff180b1fa42
p1275
aV54ff180618fdf
p1276
aV54ff1801ea84b
p1277
aV54ff180b76178
p1278
aV54ff1802f3a95
p1279
aV54ff1802f3b89
p1280
aV54ff1802a6348
p1281
aV54ff1802d1960
p1282
aV54ff17fe8d4b0
p1283
aV54ff18091baf3
p1284
aV54ff180da5ef6
p1285
aV54ff180a30d02
p1286
aV54ff180d1768c
p1287
aV54ff17fe8d665
p1288
aV54ff1806a92ab
p1289
aV54ff1806cedc4
p1290
aV54ff180752f5a
p1291
aV54ff180edc246
p1292
aV54ff180654cc8
p1293
aV54ff1808de9e9
p1294
aV54ff17feada1e
p1295
aV54ff1802d21d4
p1296
aV54ff180bc20b9
p1297
aV54ff1800bcd68
p1298
aV54ff1808af3cc
p1299
aV54ff1808b12fc
p1300
aV54ff180b760ea
p1301
aV54ff180a85576
p1302
aV54ff18057b664
p1303
aV54ff1802d5c8d
p1304
aV54ff180b50be8
p1305
aV54ff18077b2c9
p1306
aV54ff1807526f2
p1307
aV54ff18094e1a1
p1308
aV54ff1804be7b3
p1309
aV54ff180e32168
p1310
aV54ff18021c70d
p1311
aV54ff18048df8b
p1312
aV54ff180caf322
p1313
aV54ff1804672fe
p1314
aV54ff17ffd663f
p1315
aV54ff180ac8d22
p1316
aV54ff1809a1eec
p1317
aV54ff1808184a2
p1318
aV54ff17fdaeedb
p1319
aV54ff180d1707b
p1320
aV54ff17fdaddfd
p1321
aV54ff18091aefe
p1322
aV54ff180543a21
p1323
aV54ff17fde621a
p1324
aV54ff18057d401
p1325
aV54ff180a0c743
p1326
aV54ff18044262a
p1327
aV54ff180a31460
p1328
aV54ff180caea6f
p1329
aV54ff17fdaf4ac
p1330
aV54ff180a0bfc4
p1331
aV54ff18026d9fc
p1332
aV54ff17fd54e52
p1333
aV54ff180b9b30a
p1334
aV54ff18021d529
p1335
aV54ff18052aac7
p1336
aV54ff17fd536ea
p1337
aV54ff18097a4d7
p1338
aV54ff18026d025
p1339
aV54ff1802f3dcb
p1340
aV54ff180a32f83
p1341
aV54ff18039a064
p1342
aV54ff18021d773
p1343
aV54ff1805437cd
p1344
aV54ff18021b791
p1345
aV54ff17ff4c34a
p1346
aV54ff1808b1a99
p1347
aV54ff180b9aa7e
p1348
aV54ff17ff28514
p1349
aV54ff1809a1642
p1350
aV54ff180edbe96
p1351
aV54ff18088c151
p1352
aV54ff1803c4190
p1353
aV54ff180b5004e
p1354
aV54ff18021b697
p1355
aV54ff17fd76d55
p1356
aV54ff18021c0ff
p1357
aV54ff1809a2214
p1358
aV54ff18081a280
p1359
aV54ff1806cdd98
p1360
aV54ff17fe8d08f
p1361
aV54ff17ff4b3b6
p1362
aV54ff180545956
p1363
aV54ff1803c5b75
p1364
aV54ff180ac9885
p1365
aV54ff180ac9f36
p1366
aV54ff18072813c
p1367
aV54ff18097a30a
p1368
aV54ff180a57c57
p1369
aV54ff180dd08f9
p1370
aV54ff1801eaefc
p1371
aV54ff17fe276f6
p1372
aV54ff18021e3c1
p1373
aV54ff17fde82ba
p1374
aV54ff1803c5749
p1375
aV54ff17feaee70
p1376
aV54ff1806efc3e
p1377
aV54ff180a31c73
p1378
aV54ff17fd746d7
p1379
aV54ff18091bf4f
p1380
aV54ff17fde7db2
p1381
aV54ff180842229
p1382
aV54ff1809d2ca0
p1383
aV54ff1806eea41
p1384
aV54ff18008d83e
p1385
aV54ff180e11c2d
p1386
aV54ff17fdad766
p1387
aV54ff18077b38f
p1388
aV54ff1807dda0b
p1389
aV54ff18039a6a1
p1390
aV54ff18094de70
p1391
aV54ff180301aaa
p1392
aV54ff17fe27215
p1393
aV54ff180545733
p1394
aV54ff18091b44e
p1395
aV54ff1803011c1
p1396
aV54ff1800e6871
p1397
aV54ff180818f14
p1398
aV54ff18039a868
p1399
aV54ff17fe26e15
p1400
aV54ff180b1f8b3
p1401
aV54ff180440fa2
p1402
aV54ff17fde8047
p1403
aV54ff180d17457
p1404
aV54ff1808b23a9
p1405
aV54ff18048d526
p1406
aV54ff1805b218f
p1407
aV54ff18008f92b
p1408
aV54ff180b51ba3
p1409
aV54ff1809d0da8
p1410
aV54ff180a0baa7
p1411
aV54ff1807546d0
p1412
aV54ff180a0bc79
p1413
aV54ff180a3225a
p1414
aV54ff180753261
p1415
aV54ff1800bc944
p1416
aV54ff18094e8b0
p1417
aV54ff17fd7523e
p1418
aV54ff180246b15
p1419
aV54ff18046480d
p1420
aV54ff180727b9c
p1421
aV54ff180399ad2
p1422
aV54ff180a5793f
p1423
aV54ff17fe8d197
p1424
aV54ff180544662
p1425
aV54ff18077917b
p1426
aV54ff1804c06ad
p1427
aV54ff17fee1d6f
p1428
aV54ff18011cc27
p1429
aV54ff1805b2c9e
p1430
aV54ff180eb20f7
p1431
aV54ff18008e96b
p1432
aV54ff1805066c9
p1433
aV54ff18077a418
p1434
aV54ff180778f8b
p1435
aV54ff180b5047a
p1436
aV54ff180398d90
p1437
aV54ff17fedf5ea
p1438
aV54ff17fedf91a
p1439
aV54ff180b510f2
p1440
aV54ff18008e4c7
p1441
aV54ff180333052
p1442
aV54ff1804bfc5c
p1443
aV54ff1801a293a
p1444
aV54ff1800166f6
p1445
aV54ff1806a8e25
p1446
aV54ff180246573
p1447
aV54ff180618b56
p1448
aV54ff180a57ce0
p1449
aV54ff1802cfd47
p1450
aV54ff180d3f7e9
p1451
aV54ff18021e0bf
p1452
aV54ff18057ce64
p1453
aV54ff180d3eb8e
p1454
aV54ff18088c4d2
p1455
aV54ff180a56534
p1456
aV54ff1803c4b2f
p1457
aV54ff18011e275
p1458
aV54ff180753196
p1459
aV54ff18052b259
p1460
aV54ff17fe5b236
p1461
aV54ff18026bf4f
p1462
aV54ff1806efafd
p1463
aV54ff180cadd8e
p1464
aV54ff1809786bb
p1465
aV54ff18061e79b
p1466
aV54ff1803c4f94
p1467
aV54ff180c44ca4
p1468
aV54ff1807dde87
p1469
aV54ff180af1c77
p1470
aV54ff180d63d23
p1471
aV54ff180b21ee5
p1472
aV54ff180654f22
p1473
aV54ff18057b90d
p1474
aV54ff180754336
p1475
aV54ff180b9ad54
p1476
aV54ff17fe5b68d
p1477
aV54ff180e5bf4d
p1478
aV54ff180bc39a4
p1479
aV54ff1801ca36f
p1480
aV54ff180b1f4ba
p1481
aV54ff180014173
p1482
aV54ff1809a1985
p1483
aV54ff180c0c7f8
p1484
aV54ff18003ca20
p1485
aV54ff180d3fc49
p1486
aV54ff18048fd45
p1487
aV54ff1808e01d6
p1488
aV54ff18094f7d1
p1489
aV54ff18011cb1b
p1490
aV54ff1800e643a
p1491
aV54ff1803c4683
p1492
aV54ff1806cfcc0
p1493
aV54ff18008eaa2
p1494
aV54ff180545839
p1495
aV54ff180c75c37
p1496
aV54ff180bc2bb5
p1497
aV54ff17feaf5b2
p1498
aV54ff180a30db7
p1499
aV54ff180d3f03f
p1500
aV54ff180a8541c
p1501
aV54ff1800bc52e
p1502
aV54ff1808194c4
p1503
aV54ff18057b0c6
p1504
aV54ff180779df5
p1505
aV54ff180725eb1
p1506
aV54ff1807db8a5
p1507
aV54ff18026bc4a
p1508
aV54ff18014ce7b
p1509
aV54ff17fd775cb
p1510
aV54ff180da4db7
p1511
aV54ff17fe8c9d9
p1512
aV54ff180362c00
p1513
aV54ff180eb1866
p1514
aV54ff1809195d2
p1515
aV54ff180013f82
p1516
aV54ff18077948e
p1517
aV54ff18067c0d1
p1518
aV54ff180752dff
p1519
aV54ff180842a38
p1520
aV54ff180c4352c
p1521
aV54ff180b508b8
p1522
aV54ff180d6442e
p1523
aV54ff180dd22fd
p1524
aV54ff1801778c7
p1525
aV54ff180b50cf8
p1526
aV54ff18081ae4a
p1527
aV54ff180545b5e
p1528
aV54ff1807dd930
p1529
aV54ff17ff27583
p1530
aV54ff180a56ed6
p1531
aV54ff180753e0e
p1532
aV54ff18048d894
p1533
aV54ff180919db3
p1534
aV54ff1806ef18b
p1535
aV54ff180c74be0
p1536
aV54ff180a0d1b7
p1537
aV54ff1806eec02
p1538
aV54ff180c732a1
p1539
aV54ff180cada05
p1540
aV54ff180bc327c
p1541
aV54ff1808b219b
p1542
aV54ff18052a491
p1543
aV54ff1806ee881
p1544
aV54ff1807de21a
p1545
aV54ff180bc2563
p1546
aV54ff180d6643c
p1547
aV54ff180aca00a
p1548
aV54ff180d3f65f
p1549
aV54ff180506a83
p1550
aV54ff18067c7c2
p1551
aV54ff17feac93f
p1552
aV54ff17fd761ae
p1553
aV54ff18017566a
p1554
aV54ff17fe5b1b1
p1555
aV54ff180e11e7a
p1556
aV54ff180b20c08
p1557
aV54ff180a566db
p1558
aV54ff17fd549cc
p1559
aV54ff18094d7c6
p1560
aV54ff180545185
p1561
aV54ff1804be5d8
p1562
aV54ff180332e97
p1563
aV54ff18026de8b
p1564
aV54ff180399979
p1565
aV54ff180176087
p1566
aV54ff1801a2d97
p1567
aV54ff180d3e646
p1568
aV54ff1809a1d20
p1569
aV54ff1809a140e
p1570
aV54ff180b1f646
p1571
aV54ff180d665f0
p1572
aV54ff180a0b4cb
p1573
aV54ff1807524a1
p1574
aV54ff1806cf305
p1575
aV54ff18091922f
p1576
aV54ff18008e771
p1577
aV54ff180d1779a
p1578
aV54ff17fe8cfbe
p1579
aV54ff1807dd298
p1580
aV54ff17ffd5903
p1581
aV54ff18008db1b
p1582
aV54ff180d64256
p1583
aV54ff17fead44f
p1584
aV54ff18014bcae
p1585
aV54ff17ff71a2c
p1586
aV54ff18094db8e
p1587
aV54ff180d15ecc
p1588
aV54ff180e11760
p1589
aV54ff180ce5f20
p1590
aV54ff180d3e440
p1591
aV54ff1807dd78f
p1592
aV54ff18094d678
p1593
aV54ff18088bc0d
p1594
aV54ff1802a6683
p1595
aV54ff18091a9fb
p1596
aV54ff180a0c4ce
p1597
aV54ff17fde8e67
p1598
aV54ff180864e2e
p1599
aV54ff180c43999
p1600
aV54ff180c44ae5
p1601
aV54ff1808197c6
p1602
aV54ff180edb8a0
p1603
aV54ff1801a30ac
p1604
aV54ff180e33bc8
p1605
aV54ff180865843
p1606
aV54ff18088a7c6
p1607
aV54ff1807de61c
p1608
aV54ff17fe5b4a8
p1609
aV54ff17fe8ce6c
p1610
aV54ff180725815
p1611
aV54ff1800bc1dc
p1612
aV54ff18048dad2
p1613
aV54ff1801a3eeb
p1614
aV54ff17fe8c5dd
p1615
aV54ff1806ef2ab
p1616
aV54ff180b7645c
p1617
aV54ff1804be099
p1618
aV54ff18039a786
p1619
aV54ff18026cba8
p1620
aV54ff180a565bc
p1621
aV54ff180422045
p1622
aV54ff1806cf08a
p1623
aV54ff180819da8
p1624
aV54ff18067c718
p1625
aV54ff180a563c0
p1626
aV54ff180542926
p1627
aV54ff1808aee9a
p1628
aV54ff18026d828
p1629
aV54ff180a0c37c
p1630
aV54ff180363520
p1631
aV54ff180c0c348
p1632
aV54ff17fede922
p1633
aV54ff1803ef1e5
p1634
aV54ff17fee21c3
p1635
aV54ff18026c23d
p1636
aV54ff180818672
p1637
aV54ff17fdadcc1
p1638
aV54ff180842b07
p1639
aV54ff1807dcc8c
p1640
aV54ff1809d1cbc
p1641
aV54ff1808df5f3
p1642
aV54ff180d161cf
p1643
aV54ff1806cea0a
p1644
aV54ff180a0cec1
p1645
aV54ff18014cabb
p1646
aV54ff180176b23
p1647
aV54ff180e1182a
p1648
aV54ff180b76db2
p1649
aV54ff18094ebb9
p1650
aV54ff18088a51e
p1651
aV54ff1801a2d14
p1652
aV54ff18011cef2
p1653
aV54ff17fdae965
p1654
aV54ff17fedfd60
p1655
aV54ff180bc2407
p1656
aV54ff18021ca52
p1657
aV54ff1800bd06b
p1658
aV54ff1805b1f9e
p1659
aV54ff180b9b7b0
p1660
aV54ff180c7a946
p1661
aV54ff18008da2f
p1662
aV54ff180442136
p1663
aV54ff17fd53c6e
p1664
aV54ff180b51ae9
p1665
aV54ff17ff4c6c2
p1666
aV54ff17fde6501
p1667
aV54ff17fe5af0f
p1668
aV54ff17feaf71b
p1669
aV54ff17ff26824
p1670
aV54ff1806ee205
p1671
aV54ff180177796
p1672
aV54ff1808b05d0
p1673
aV54ff18014c273
p1674
aV54ff17fdafe9d
p1675
aV54ff1805436ab
p1676
aV54ff18008d75c
p1677
aV54ff180a0c1f9
p1678
aV54ff180177e67
p1679
aV54ff1800e5f83
p1680
aV54ff180979ea6
p1681
aV54ff18091bd70
p1682
aV54ff1805449b9
p1683
aV54ff180d3fb87
p1684
aV54ff180841999
p1685
aV54ff1801ea5a1
p1686
aV54ff1802454f5
p1687
aV54ff1807dbb29
p1688
aV54ff1803c3c53
p1689
aV54ff18088cb54
p1690
aV54ff180864d64
p1691
aV54ff18001429a
p1692
aV54ff180778e89
p1693
aV54ff1806ce799
p1694
aV54ff1802464ce
p1695
aV54ff1802a353a
p1696
aV54ff1809a1b33
p1697
aV54ff180542d85
p1698
aV54ff1807de556
p1699
aV54ff1807dc57f
p1700
aV54ff17fe27926
p1701
aV54ff1803c52dc
p1702
aV54ff18052b8f5
p1703
aV54ff18088aa29
p1704
aV54ff180245431
p1705
aV54ff180d15982
p1706
aV54ff180c43169
p1707
aV54ff17ff4b49c
p1708
aV54ff18067b773
p1709
aV54ff180818ce3
p1710
aV54ff180e5cd66
p1711
aV54ff17feacf04
p1712
aV54ff180b52128
p1713
aV54ff180e5bb15
p1714
aV54ff180465fc6
p1715
aV54ff180caebe0
p1716
aV54ff17ffd69f2
p1717
aV54ff1806a6bb4
p1718
aV54ff1808dee85
p1719
aV54ff1808439f2
p1720
aV54ff180b9b569
p1721
aV54ff1809d3d3a
p1722
aV54ff180e5c96c
p1723
aV54ff1808e06a7
p1724
aV54ff180cae204
p1725
aV54ff180176d0b
p1726
aV54ff18094d9b9
p1727
aV54ff17fde8bf6
p1728
aV54ff180841f0f
p1729
aV54ff18081a3ff
p1730
aV54ff180753573
p1731
aV54ff1809a159a
p1732
aV54ff18008e259
p1733
aV54ff180819cc6
p1734
aV54ff1809d2ec6
p1735
aV54ff18011e36c
p1736
aV54ff180bc2cd3
p1737
aV54ff180866182
p1738
aV54ff180eb1b1f
p1739
aV54ff180727271
p1740
aV54ff180b51ed7
p1741
aV54ff180544020
p1742
aV54ff180979c38
p1743
aV54ff180d3e5a5
p1744
aV54ff180b20a9d
p1745
aV54ff18091b7ee
p1746
aV54ff180063fa3
p1747
aV54ff18048f50b
p1748
aV54ff180d178dd
p1749
aV54ff180a0ac90
p1750
aV54ff180978c7a
p1751
aV54ff180b511f3
p1752
aV54ff180013d2e
p1753
aV54ff1803c59eb
p1754
aV54ff1806cf902
p1755
aV54ff180b765ff
p1756
aV54ff18048da1d
p1757
aV54ff180b50f15
p1758
aV54ff17ffd4324
p1759
aV54ff180a0d616
p1760
aV54ff17fdae504
p1761
aV54ff18052af3d
p1762
aV54ff180752127
p1763
aV54ff1803efbee
p1764
aV54ff1807261f2
p1765
aV54ff180b217a8
p1766
aV54ff18003c731
p1767
aV54ff180300271
p1768
aV54ff180a32bd1
p1769
aV54ff18048e572
p1770
aV54ff180a0cf87
p1771
aV54ff180a0b83e
p1772
aV54ff180245871
p1773
aV54ff180b76aa8
p1774
aV54ff180bc3147
p1775
aV54ff1809a1bc9
p1776
aV54ff180543bc7
p1777
aV54ff180506787
p1778
aV54ff180af13e5
p1779
aV54ff1808e0e6a
p1780
aV54ff17fe8bf82
p1781
aV54ff180da6014
p1782
aV54ff180d17d36
p1783
aV54ff1807ddc9a
p1784
aV54ff180654a24
p1785
aV54ff18054539a
p1786
aV54ff18052aeae
p1787
aV54ff180b764e9
p1788
aV54ff180779bce
p1789
aV54ff180b2054a
p1790
aV54ff18008f210
p1791
aV54ff18081873a
p1792
aV54ff180b75d52
p1793
aV54ff1805438e7
p1794
aV54ff1809d3a05
p1795
aV54ff1803998a9
p1796
aV54ff180e84be7
p1797
aV54ff17ffd6b9a
p1798
aV54ff1806cecd4
p1799
aV54ff1801a3330
p1800
aV54ff180a0c083
p1801
aV54ff1809a09fc
p1802
aV54ff180edaeb9
p1803
aV54ff18094dabf
p1804
aV54ff1807dd046
p1805
aV54ff1802a2c21
p1806
aV54ff180a85303
p1807
aV54ff180866d68
p1808
aV54ff180d1649d
p1809
aV54ff180c7ac90
p1810
aV54ff17fde6318
p1811
aV54ff180654c06
p1812
aV54ff1807dcf2f
p1813
aV54ff18088b1db
p1814
aV54ff1802a3f1d
p1815
aV54ff180421fcd
p1816
aV54ff18014c856
p1817
aV54ff180b767b6
p1818
aV54ff1808dfda4
p1819
aV54ff180a56806
p1820
aV54ff18067a9f2
p1821
aV54ff180543ea4
p1822
aV54ff1802a3bca
p1823
aV54ff18026b7dd
p1824
aV54ff1802a46cf
p1825
aV54ff180bc38e3
p1826
aV54ff18014bb88
p1827
aV54ff180b9adff
p1828
aV54ff180edbdab
p1829
aV54ff1802d0dea
p1830
aV54ff1801c9367
p1831
aV54ff180e12190
p1832
aV54ff18088c2c0
p1833
aV54ff1807de9f8
p1834
aV54ff1801c9ad1
p1835
aV54ff180440bb4
p1836
aV54ff180842724
p1837
aV54ff1809a14ed
p1838
aV54ff180725647
p1839
aV54ff180b21bb5
p1840
aV54ff180726431
p1841
aV54ff18094e3a0
p1842
aV54ff18057cb57
p1843
aV54ff17fe5ae55
p1844
aV54ff1800e5724
p1845
aV54ff180b9b3fa
p1846
aV54ff180866811
p1847
aV54ff1809a216b
p1848
aV54ff180d66bca
p1849
aV54ff180e5d5ea
p1850
aV54ff18054456a
p1851
aV54ff180a854bf
p1852
aV54ff18021bd74
p1853
aV54ff180a0d10a
p1854
aV54ff180016635
p1855
aV54ff18026bad2
p1856
aV54ff1809a1a0b
p1857
aV54ff180a33022
p1858
aV54ff18067b448
p1859
aV54ff18057d30a
p1860
aV54ff1800bc2c9
p1861
aV54ff180d63af7
p1862
aV54ff1801eb791
p1863
aV54ff180eda2fe
p1864
aV54ff180754573
p1865
aV54ff17feae095
p1866
aV54ff18054347d
p1867
aV54ff17feafef7
p1868
aV54ff17fde5e25
p1869
aV54ff18014b262
p1870
aV54ff1809d2418
p1871
aV54ff18026c121
p1872
aV54ff180c423d1
p1873
aV54ff1801eab8d
p1874
aV54ff180edb2e6
p1875
aV54ff17ffd670b
p1876
aV54ff1800e6689
p1877
aV54ff180e5c468
p1878
aV54ff180e31ff1
p1879
aV54ff18094f4ee
p1880
aV54ff180505627
p1881
aV54ff18057d506
p1882
aV54ff1801a2b1e
p1883
aV54ff1807792de
p1884
aV54ff180d3fd64
p1885
aV54ff18067b9e3
p1886
aV54ff17ff71454
p1887
aV54ff180b51f9d
p1888
aV54ff18097a3c2
p1889
aV54ff180dd0a88
p1890
aV54ff18046667a
p1891
aV54ff1807dd67e
p1892
aV54ff18057ab62
p1893
aV54ff180e33aa9
p1894
aV54ff180422a01
p1895
aV54ff1808423e7
p1896
aV54ff18021bb6c
p1897
aV54ff18008c9b0
p1898
aV54ff1800649fa
p1899
aV54ff1803017f0
p1900
aV54ff1806ce688
p1901
aV54ff17fe29a42
p1902
aV54ff17fd740d3
p1903
aV54ff18091a8e0
p1904
aV54ff1809d44a8
p1905
aV54ff180b4fba4
p1906
aV54ff1808b148c
p1907
aV54ff18021cb53
p1908
aV54ff18057b3c5
p1909
aV54ff18097ab2f
p1910
aV54ff18021deb5
p1911
aV54ff180a0add3
p1912
aV54ff180e3420f
p1913
aV54ff1806efb8b
p1914
aV54ff180f0f2d8
p1915
aV54ff1803f0411
p1916
aV54ff180d40258
p1917
aV54ff17fd53601
p1918
aV54ff17fe285a3
p1919
aV54ff18088afa6
p1920
aV54ff180da5481
p1921
aV54ff17fee11b5
p1922
aV54ff18011d0ee
p1923
aV54ff18052ae10
p1924
aV54ff17feaf987
p1925
aV54ff1803633d6
p1926
aV54ff180753d1d
p1927
aV54ff180442043
p1928
aV54ff1800bd9a9
p1929
aV54ff180c738c8
p1930
aV54ff180818ad8
p1931
aV54ff1806ceaec
p1932
aV54ff18072574f
p1933
aV54ff17fe5b81c
p1934
aV54ff1803f00bf
p1935
aV54ff1801eb436
p1936
aV54ff17fde895a
p1937
aV54ff180d17366
p1938
aV54ff180246cc9
p1939
aV54ff1807dc015
p1940
aV54ff180c74578
p1941
aV54ff1806ce34a
p1942
aV54ff17fde8da7
p1943
aV54ff18008e062
p1944
aV54ff180a5785e
p1945
aV54ff180a570a3
p1946
aV54ff18091ac79
p1947
aV54ff17fdad53b
p1948
aV54ff1806edf54
p1949
aV54ff1809a0c36
p1950
aV54ff18014c1b7
p1951
aV54ff180a0cb4f
p1952
aV54ff180cae918
p1953
aV54ff180175a12
p1954
aV54ff1808df057
p1955
aV54ff1807de30b
p1956
aV54ff180a31831
p1957
aV54ff1804411ec
p1958
aV54ff18091b6b0
p1959
aV54ff180819e7c
p1960
aV54ff180c43694
p1961
aV54ff17fde8b31
p1962
aV54ff180caf689
p1963
aV54ff180edb234
p1964
aV54ff180a0c9c9
p1965
aV54ff18091b04e
p1966
aV54ff180246a74
p1967
aV54ff18026df7c
p1968
aV54ff17feafcd1
p1969
aV54ff180333392
p1970
aV54ff18065315c
p1971
aV54ff1806a6e4c
p1972
aV54ff18067b826
p1973
aV54ff1806cd669
p1974
aV54ff1807dbed3
p1975
aV54ff180d63c53
p1976
aV54ff1809a2334
p1977
aV54ff180dd1eef
p1978
aV54ff180d3ea1c
p1979
aV54ff180d17244
p1980
aV54ff17ffd6007
p1981
aV54ff18026d28d
p1982
aV54ff180b4ff49
p1983
aV54ff1808decda
p1984
aV54ff17fd74ec8
p1985
aV54ff17fe27e64
p1986
aV54ff17ffd690d
p1987
aV54ff180eda409
p1988
aV54ff18048d96f
p1989
aV54ff17fd74c7f
p1990
aV54ff18021d669
p1991
aV54ff180a0caa1
p1992
aV54ff180542484
p1993
aV54ff180542a11
p1994
aV54ff1809a1f77
p1995
aV54ff17fe8d3a1
p1996
aV54ff1803c5d98
p1997
aV54ff18077aee6
p1998
aV54ff17fdafdd9
p1999
aV54ff1809d1ed3
p2000
aV54ff180d3f0d4
p2001
aV54ff180da696b
p2002
aV54ff180edadcc
p2003
aV54ff180cadb43
p2004
aV54ff18067bbe0
p2005
aV54ff17ffd44ad
p2006
aV54ff180918eeb
p2007
aV54ff180d40156
p2008
aV54ff1809d2242
p2009
aV54ff180eb279d
p2010
aV54ff180c7523e
p2011
aV54ff180362d7e
p2012
aV54ff180c4417a
p2013
aV54ff1801cab42
p2014
aV54ff180eb06af
p2015
aV54ff1809d106b
p2016
aV54ff180b76b67
p2017
aV54ff1809d18e6
p2018
aV54ff17fdaf3c2
p2019
aV54ff180e10dd4
p2020
aV54ff1806190d4
p2021
aV54ff17fead65f
p2022
aV54ff17fde780b
p2023
aV54ff180441997
p2024
aV54ff18077908e
p2025
aV54ff180979ae6
p2026
aV54ff1808afc89
p2027
aV54ff180e11f35
p2028
aV54ff1800e6ea5
p2029
aV54ff180979d11
p2030
aV54ff180175c98
p2031
aV54ff18086505a
p2032
aV54ff1802d0709
p2033
aV54ff180a32835
p2034
aV54ff180a32b2b
p2035
aV54ff17fe5ab68
p2036
aV54ff180cad85d
p2037
aV54ff18067b006
p2038
aV54ff1802a2759
p2039
aV54ff180d64706
p2040
aV54ff180da4c14
p2041
aV54ff18088a93c
p2042
aV54ff180953a6a
p2043
aV54ff180a0d386
p2044
aV54ff180b4f59f
p2045
aV54ff180866543
p2046
aV54ff180b9aca5
p2047
aV54ff180013bfe
p2048
aV54ff180979151
p2049
aV54ff1803f0701
p2050
aV54ff18008f3d4
p2051
aV54ff180b513be
p2052
aV54ff180d636d4
p2053
aV54ff1809d3393
p2054
aV54ff1802461e3
p2055
aV54ff180dd12b3
p2056
aV54ff180d15b9d
p2057
aV54ff1806cf759
p2058
aV54ff180c7412e
p2059
aV54ff17ff27cf3
p2060
aV54ff18014ca00
p2061
aV54ff17fd74a9f
p2062
aV54ff17fee2564
p2063
aV54ff180618978
p2064
aV54ff180da46a1
p2065
aV54ff18026cc8e
p2066
aV54ff18021ba65
p2067
aV54ff180b1fd6a
p2068
aV54ff1804224b7
p2069
aV54ff180464b05
p2070
aV54ff17fdafcf0
p2071
aV54ff17ff4c1e9
p2072
aV54ff1807dcdad
p2073
aV54ff1800e6c6c
p2074
aV54ff18014b986
p2075
aV54ff18048f752
p2076
aV54ff180b51c68
p2077
aV54ff180c74f72
p2078
aV54ff180d3f358
p2079
aV54ff18039ab8a
p2080
aV54ff180da48d0
p2081
aV54ff17fe5bb91
p2082
aV54ff1801a2f22
p2083
aV54ff18042242b
p2084
aV54ff180c447d1
p2085
aV54ff180442b01
p2086
aV54ff180246352
p2087
aV54ff180d3eda4
p2088
aV54ff180d3f72e
p2089
aV54ff180eb2389
p2090
aV54ff1800bba1e
p2091
aV54ff180ac94c3
p2092
aV54ff1807ddd83
p2093
aV54ff180e348fa
p2094
aV54ff180245df2
p2095
aV54ff1808652fd
p2096
aV54ff180eaffc7
p2097
aV54ff180a3277f
p2098
aV54ff18088b361
p2099
aV54ff17ffd56fc
p2100
aV54ff180a32cea
p2101
aV54ff18094d547
p2102
aV54ff18091adf3
p2103
aV54ff18011e6f3
p2104
aV54ff180d17fb4
p2105
aV54ff1808de8cd
p2106
aV54ff17fde76da
p2107
aV54ff180421cb9
p2108
aV54ff18067c868
p2109
aV54ff180b76847
p2110
aV54ff180dd2820
p2111
aV54ff18008d6a7
p2112
aV54ff18057acc3
p2113
aV54ff180d1753a
p2114
aV54ff17fdaf772
p2115
aV54ff180a57762
p2116
aV54ff18014b7b7
p2117
aV54ff180245f6e
p2118
aV54ff180c7318a
p2119
aV54ff18081a775
p2120
aV54ff18088a32a
p2121
aV54ff18091a43c
p2122
aV54ff180843dc7
p2123
aV54ff1804bfed9
p2124
aV54ff17fd54316
p2125
aV54ff180cb043a
p2126
aV54ff18048d7af
p2127
aV54ff180a323a9
p2128
aV54ff18008d087
p2129
aV54ff1809a1e51
p2130
aV54ff18008e5da
p2131
aV54ff180b52069
p2132
aV54ff1808430ce
p2133
aV54ff180b76bfa
p2134
aV54ff180b99d8c
p2135
aV54ff180b50e1b
p2136
aV54ff1801a47ee
p2137
aV54ff1809d2557
p2138
aV54ff17fd74b84
p2139
aV54ff17fe8cdf0
p2140
aV54ff18008ece9
p2141
aV54ff1806ce29c
p2142
aV54ff180a0d2a8
p2143
aV54ff18048f84a
p2144
aV54ff1801e90d7
p2145
aV54ff180b21965
p2146
aV54ff180245ec7
p2147
aV54ff18088c053
p2148
aV54ff1800be152
p2149
aV54ff180d63f35
p2150
aV54ff1803c43e4
p2151
aV54ff180eb1518
p2152
aV54ff180c449d0
p2153
aV54ff1807de42d
p2154
aV54ff17fee13f3
p2155
aV54ff17ff70a63
p2156
aV54ff180da71d7
p2157
aV54ff180d63236
p2158
aV54ff1800e4d50
p2159
aV54ff180842bca
p2160
aV54ff180edc642
p2161
aV54ff180bc2de9
p2162
aV54ff17feadc90
p2163
aV54ff18003bfd0
p2164
aV54ff1808b1dff
p2165
aV54ff1800e6db2
p2166
aV54ff180e11b72
p2167
aV54ff180bc304c
p2168
aV54ff180bc3bb2
p2169
aV54ff1808b0f06
p2170
aV54ff180edbf9b
p2171
aV54ff1802462b6
p2172
aV54ff180819325
p2173
aV54ff1802f3ec6
p2174
aV54ff17fdaf1ea
p2175
aV54ff17fdaebe5
p2176
aV54ff180b5027a
p2177
aV54ff180d3fe11
p2178
aV54ff1800bceef
p2179
aV54ff180b51d34
p2180
aV54ff180d640cf
p2181
aV54ff1809a11ae
p2182
aV54ff180465dfb
p2183
aV54ff17fead53c
p2184
aV54ff180e120ee
p2185
aV54ff180753742
p2186
aV54ff180cae45d
p2187
aV54ff180727f4f
p2188
aV54ff1808debea
p2189
aV54ff1802a4829
p2190
aV54ff180da51b1
p2191
aV54ff18067c5dd
p2192
aV54ff18057ba76
p2193
aV54ff17ff4ab31
p2194
aV54ff180dd1d99
p2195
aV54ff180b768ef
p2196
aV54ff17fe26f67
p2197
aV54ff180865a74
p2198
aV54ff1809d211a
p2199
aV54ff1806a957b
p2200
aV54ff180a0cd0c
p2201
aV54ff180eb0e07
p2202
aV54ff1805b1e46
p2203
aV54ff180529fc3
p2204
aV54ff1809a2457
p2205
aV54ff1800e5e58
p2206
aV54ff180a32d8c
p2207
aV54ff18081ac2b
p2208
aV54ff17fe293cd
p2209
aV54ff18061e3e2
p2210
aV54ff17fee0997
p2211
aV54ff180bc3446
p2212
aV54ff18021dbfc
p2213
aV54ff1800e429e
p2214
aV54ff180c0ca05
p2215
aV54ff1808af123
p2216
aV54ff17fe275b7
p2217
aV54ff180c0cd27
p2218
aV54ff18021b3a4
p2219
aV54ff180e33ec7
p2220
aV54ff1802a2ee5
p2221
aV54ff1803effd3
p2222
aV54ff18067acd7
p2223
aV54ff1808662b0
p2224
aV54ff180333cef
p2225
aV54ff18054302b
p2226
aV54ff180726126
p2227
aV54ff180753b73
p2228
aV54ff180c0ebb5
p2229
aV54ff180174f71
p2230
aV54ff1800e52bb
p2231
aV54ff180d17ae7
p2232
aV54ff180778c04
p2233
aV54ff18021e4dd
p2234
aV54ff18008d1f9
p2235
aV54ff18014bd64
p2236
aV54ff180b2096d
p2237
aV54ff1809a0975
p2238
aV54ff18052b3c6
p2239
aV54ff180d6674e
p2240
aV54ff1802a61b2
p2241
aV54ff1809d2fa6
p2242
aV54ff17ff4a8f8
p2243
aV54ff180752c9d
p2244
aV54ff1800bbc23
p2245
aV54ff1802cfe9f
p2246
aV54ff18003cfc5
p2247
aV54ff18021c4d8
p2248
aV54ff1809d3bff
p2249
aV54ff180ce52e8
p2250
aV54ff1808e05bd
p2251
aV54ff1807539aa
p2252
aV54ff18021d333
p2253
aV54ff180cb05fb
p2254
aV54ff1807259fa
p2255
aV54ff18097a597
p2256
aV54ff180a85852
p2257
aV54ff1803c3e4c
p2258
aV54ff180819128
p2259
aV54ff180b1f40f
p2260
aV54ff18067bd22
p2261
aV54ff1803c436a
p2262
aV54ff17ff4b57e
p2263
aV54ff18061a1bc
p2264
aV54ff17fedebfc
p2265
aV54ff1800bdd81
p2266
aV54ff180363607
p2267
aV54ff18008dbf8
p2268
aV54ff1809a18d1
p2269
aV54ff1800be25f
p2270
aV54ff180063e7e
p2271
aV54ff180a0b707
p2272
aV54ff180eb1ce7
p2273
aV54ff180726383
p2274
aV54ff180422ba9
p2275
aV54ff18044173a
p2276
aV54ff1801eb286
p2277
aV54ff17ff70983
p2278
aV54ff180d6589f
p2279
aV54ff1800e6579
p2280
aV54ff180506887
p2281
aV54ff17ff28aa5
p2282
aV54ff1805b20ed
p2283
aV54ff180a0d05e
p2284
aV54ff1801a350e
p2285
aV54ff1803c45a1
p2286
aV54ff17fe5af9a
p2287
aV54ff180e32f1f
p2288
aV54ff17ffd5bfa
p2289
aV54ff17fd54955
p2290
aV54ff180e5cfd0
p2291
aV54ff1808e0bec
p2292
aV54ff180b9a149
p2293
aV54ff180af1a41
p2294
aV54ff180c7439f
p2295
aV54ff180caf929
p2296
aV54ff18021d192
p2297
aV54ff180618ebd
p2298
aV54ff180dd0b46
p2299
aV54ff1805452b7
p2300
aV54ff180818a2c
p2301
aV54ff180177067
p2302
aV54ff180c74230
p2303
aV54ff18036291d
p2304
aV54ff180015e1f
p2305
aV54ff1807523a1
p2306
aV54ff180c0d19d
p2307
aV54ff180819fa9
p2308
aV54ff1803c3ad8
p2309
aV54ff18003d0f2
p2310
aV54ff18088b5b4
p2311
aV54ff180d16e6b
p2312
aV54ff180d3f5d0
p2313
aV54ff18021e1c2
p2314
aV54ff1806a91e9
p2315
aV54ff18011bf4c
p2316
aV54ff1808649fd
p2317
aV54ff180eb093d
p2318
aV54ff18026b68a
p2319
aV54ff17fde6791
p2320
aV54ff17fde7f0e
p2321
aV54ff180843928
p2322
aV54ff180b50664
p2323
aV54ff1803012a4
p2324
aV54ff18086672f
p2325
aV54ff180363256
p2326
aV54ff180da6f7c
p2327
aV54ff1809d3788
p2328
aV54ff1808199d1
p2329
aV54ff180422b08
p2330
aV54ff18011e607
p2331
aV54ff17ff4ac49
p2332
aV54ff1808195ba
p2333
aV54ff18033434e
p2334
aV54ff18048d34f
p2335
aV54ff180a0cc29
p2336
aV54ff180e5bd37
p2337
aV54ff180245ba5
p2338
aV54ff1809d1183
p2339
aV54ff180a32ef4
p2340
aV54ff180cb02f4
p2341
aV54ff180752bac
p2342
aV54ff180a328db
p2343
aV54ff18008df70
p2344
aV54ff180c43eff
p2345
aV54ff1809d3640
p2346
aV54ff180b9b4b5
p2347
aV54ff1804bf416
p2348
aV54ff18014b142
p2349
aV54ff18057b20b
p2350
aV54ff18081acf1
p2351
aV54ff180b1f295
p2352
aV54ff18026c9d0
p2353
aV54ff18057cc5e
p2354
aV54ff18052b0a2
p2355
aV54ff17feaf39b
p2356
aV54ff17fdad2f1
p2357
aV54ff18081a9be
p2358
aV54ff1808e0d90
p2359
aV54ff18067c315
p2360
aV54ff1801c9bed
p2361
aV54ff18014c629
p2362
aV54ff17fd7670e
p2363
aV54ff1803c51c6
p2364
aV54ff180778d82
p2365
aV54ff18091c19d
p2366
aV54ff18048e229
p2367
aV54ff180cafc45
p2368
aV54ff180cb01c6
p2369
aV54ff17fde793f
p2370
aV54ff1809a0afd
p2371
aV54ff180177598
p2372
aV54ff1800e6a3f
p2373
aV54ff180da5e1b
p2374
aV54ff17fdae7a7
p2375
aV54ff180752d38
p2376
aV54ff18008f681
p2377
aV54ff18088b2bc
p2378
aV54ff180c0d526
p2379
aV54ff17fee1f42
p2380
aV54ff180ce4bbb
p2381
aV54ff1806efd59
p2382
aV54ff18048d5fb
p2383
aV54ff1805b3916
p2384
aV54ff1807267fd
p2385
aV54ff1809194ae
p2386
aV54ff17fee2270
p2387
aV54ff1804bf096
p2388
aV54ff180e336da
p2389
aV54ff18081a4b4
p2390
aV54ff1803efcf2
p2391
aV54ff1800e5a92
p2392
aV54ff180d3f9ac
p2393
aV54ff1808aed9b
p2394
aV54ff1809a24f7
p2395
aV54ff180ce51c7
p2396
aV54ff180866f52
p2397
aV54ff18067b512
p2398
aV54ff180b9a526
p2399
aV54ff180a57161
p2400
aV54ff18057ec35
p2401
aV54ff180d160df
p2402
aV54ff1806a90f9
p2403
aV54ff180a310d6
p2404
aV54ff1801ea111
p2405
aV54ff1806eedbd
p2406
aV54ff180c0d094
p2407
aV54ff17fd53cf3
p2408
aV54ff180a31ed7
p2409
aV54ff1801ca203
p2410
aV54ff1807dc476
p2411
aV54ff180c42195
p2412
aV54ff180177beb
p2413
aV54ff180e11909
p2414
aV54ff180a31332
p2415
aV54ff1801a53af
p2416
aV54ff1802467a8
p2417
aV54ff180d6343d
p2418
aV54ff1803c53cb
p2419
aV54ff18057b794
p2420
aV54ff180d3f41e
p2421
aV54ff180422d36
p2422
aV54ff180b1fc63
p2423
aV54ff1807533f5
p2424
aV54ff18026d56d
p2425
aV54ff180a3192f
p2426
aV54ff180841ab1
p2427
aV54ff180dd0c13
p2428
aV54ff18046653e
p2429
aV54ff1809d2dff
p2430
aV54ff180d165c5
p2431
aV54ff18008cc0a
p2432
aV54ff180dd1faa
p2433
aV54ff180013e5f
p2434
aV54ff180544be7
p2435
aV54ff180edbcae
p2436
aV54ff17ffd6812
p2437
aV54ff1802d5e17
p2438
aV54ff1805b367a
p2439
aV54ff17fde57bc
p2440
aV54ff17fdadbc6
p2441
aV54ff180dd2767
p2442
aV54ff180978e78
p2443
aV54ff180300615
p2444
aV54ff180ce4a54
p2445
aV54ff1803c4940
p2446
aV54ff17fe27460
p2447
aV54ff180a32e57
p2448
aV54ff180726fd5
p2449
aV54ff1807ddacc
p2450
aV54ff180e5be69
p2451
aV54ff1808196d4
p2452
aV54ff18014bacd
p2453
aV54ff1803332d6
p2454
aV54ff180da614d
p2455
aV54ff180b5164d
p2456
aV54ff18054509f
p2457
aV54ff17fde5d37
p2458
aV54ff180b4faee
p2459
aV54ff180d66ad8
p2460
aV54ff1809a072f
p2461
aV54ff1807dd857
p2462
aV54ff17fe5b02a
p2463
aV54ff1801eb0b0
p2464
aV54ff180bc282c
p2465
aV54ff1801774e3
p2466
aV54ff1803c4a46
p2467
aV54ff18014c3e7
p2468
aV54ff180cadea8
p2469
aV54ff18021b2bd
p2470
aV54ff180979221
p2471
aV54ff180a3155c
p2472
aV54ff18088ca31
p2473
aV54ff1800bd2d7
p2474
aV54ff1809d0f36
p2475
aV54ff180c733c4
p2476
aV54ff1808428e2
p2477
aV54ff18091911e
p2478
aV54ff1809a0fd6
p2479
aV54ff180421928
p2480
aV54ff1807544d0
p2481
aV54ff1806cd857
p2482
aV54ff180d63e08
p2483
aV54ff180a32307
p2484
aV54ff1808e0f54
p2485
aV54ff18011c455
p2486
aV54ff17ff71824
p2487
aV54ff18088c986
p2488
aV54ff1807de77d
p2489
aV54ff1801a3470
p2490
aV54ff180a0c11f
p2491
aV54ff1806ef3c2
p2492
aV54ff1804bffc7
p2493
aV54ff180753c36
p2494
aV54ff18094df4e
p2495
aV54ff17ff4bf53
p2496
aV54ff18021cd67
p2497
aV54ff180544795
p2498
aV54ff18011e83c
p2499
aV54ff1809d2752
p2500
aV54ff180e5c57e
p2501
aV54ff18057c68e
p2502
aV54ff18086721b
p2503
aV54ff1809a22ab
p2504
aV54ff180752ea1
p2505
aV54ff180246f1a
p2506
aV54ff18021dfba
p2507
aV54ff180d3f91e
p2508
aV54ff180a568b2
p2509
aV54ff1806ce3fe
p2510
aV54ff180247325
p2511
aV54ff180c0de30
p2512
aV54ff180978d8b
p2513
aV54ff180c746c0
p2514
aV54ff180a3242a
p2515
aV54ff18088b8d5
p2516
aV54ff1803c4223
p2517
aV54ff17fe27cc7
p2518
aV54ff18088a71b
p2519
aV54ff1800159cc
p2520
aV54ff17fd747f3
p2521
aV54ff180dd24a9
p2522
aV54ff18091bfe8
p2523
aV54ff17fd53780
p2524
aV54ff18036520e
p2525
aV54ff1809d43eb
p2526
aV54ff180542ae9
p2527
aV54ff180b4fa0d
p2528
aV54ff180ce406e
p2529
aV54ff180d3fae8
p2530
aV54ff18052a2e3
p2531
aV54ff180c41e5f
p2532
aV54ff180953b33
p2533
aV54ff180b4fd86
p2534
aV54ff1806ef9ff
p2535
aV54ff180e5c08a
p2536
aV54ff180cae6b7
p2537
aV54ff1801a4b9f
p2538
aV54ff17ff26940
p2539
aV54ff18067ab72
p2540
aV54ff17fdaecdd
p2541
aV54ff180cadfb8
p2542
aV54ff18057b4e8
p2543
aV54ff1801a419a
p2544
aV54ff18088be2b
p2545
aV54ff1807dd37c
p2546
aV54ff180b21fe0
p2547
aV54ff1808aeaed
p2548
aV54ff1807270e0
p2549
aV54ff18088b7ce
p2550
aV54ff1800bccae
p2551
aV54ff180d6381c
p2552
aV54ff1800bc3b6
p2553
aV54ff18088b661
p2554
aV54ff18048eb85
p2555
aV54ff180466b79
p2556
aV54ff1809a20da
p2557
aV54ff18067c262
p2558
aV54ff1807ddbb3
p2559
aV54ff1803f0829
p2560
aV54ff1804413af
p2561
aV54ff180245208
p2562
aV54ff18003c2a1
p2563
aV54ff18091a029
p2564
aV54ff180979dd0
p2565
aV54ff1808b0d8f
p2566
aV54ff18026e158
p2567
aV54ff18008ef31
p2568
aV54ff1809a16ea
p2569
aV54ff180246868
p2570
aV54ff17fe5b5c2
p2571
aV54ff180301eac
p2572
aV54ff180d3e89b
p2573
aV54ff180544458
p2574
aV54ff18048f639
p2575
assVplantas_raras_do_cerrado
p2576
g0
(g5
tp2577
Rp2578
sVespecies_indicadas
p2579
g0
(g5
tp2580
Rp2581
sVpublic
p2582
g0
(g5
tp2583
Rp2584
g26
(lp2585
V54ff17fd74c7f
p2586
aV54ff17fd740d3
p2587
aV54ff17fd54955
p2588
aV54ff17fd54316
p2589
aV54ff17fdad766
p2590
aV54ff17fdada99
p2591
aV54ff17fdaddfd
p2592
aV54ff17fd7670e
p2593
aV54ff17fd53e64
p2594
aV54ff17fd53c6e
p2595
aV54ff17fd54c42
p2596
aV54ff17fd54286
p2597
aV54ff17fd53809
p2598
aV54ff17fd7523e
p2599
aV54ff17fd746d7
p2600
aV54ff17fd74a9f
p2601
aV54ff17fd53f75
p2602
aV54ff17fd54625
p2603
aV54ff17fd549cc
p2604
aV54ff17fd536ea
p2605
aV54ff17fd53780
p2606
aV54ff17fd76524
p2607
aV54ff17fd5450c
p2608
aV54ff17fdae504
p2609
aV54ff17fe8ce6c
p2610
aV54ff17fdaf1ea
p2611
aV54ff17fd539c5
p2612
aV54ff17fd53cf3
p2613
aV54ff180064220
p2614
aV54ff17fd53601
p2615
aV54ff17fde5b7d
p2616
aV54ff17fde5e25
p2617
aV54ff17fde6501
p2618
aV54ff17feae96a
p2619
aV54ff17fd750a7
p2620
aV54ff17fd53ada
p2621
aV54ff17fd54a4c
p2622
aV54ff17fee1c4a
p2623
aV54ff17fee1d6f
p2624
aV54ff17fee1f42
p2625
aV54ff17fdaf3c2
p2626
aV54ff17feacf04
p2627
aV54ff17fead058
p2628
aV54ff17fdae965
p2629
aV54ff17fdaebe5
p2630
aV54ff17fdaf0fb
p2631
aV54ff17fe8d53b
p2632
aV54ff17fd775cb
p2633
aV54ff18006467a
p2634
aV54ff180064857
p2635
aV54ff17fe5b2b4
p2636
aV54ff17fe5b348
p2637
aV54ff17fe281a3
p2638
aV54ff17fee13f3
p2639
aV54ff17fdafb09
p2640
aV54ff17fdafc12
p2641
aV54ff17fde53af
p2642
aV54ff17fde5a71
p2643
aV54ff17fead53c
p2644
aV54ff17fdaefda
p2645
aV54ff17fe8d4b0
p2646
aV54ff17fd541fe
p2647
aV54ff17fd54e52
p2648
aV54ff17fde57bc
p2649
aV54ff17feadc90
p2650
aV54ff17fdaecdd
p2651
aV54ff17fe8d5cf
p2652
aV54ff17fe8d665
p2653
aV54ff1800643d4
p2654
aV54ff1800649fa
p2655
aV54ff17fe5b5c2
p2656
aV54ff17fe5b68d
p2657
aV54ff17fe29a42
p2658
aV54ff17fdad2f1
p2659
aV54ff17fdad3fd
p2660
aV54ff17feaed39
p2661
aV54ff17feaf39b
p2662
aV54ff17fde780b
p2663
aV54ff17fde5f3c
p2664
aV54ff17fe28eb2
p2665
aV54ff17fe293cd
p2666
aV54ff17fee21c3
p2667
aV54ff17fe29b14
p2668
aV54ff17fdaf4ac
p2669
aV54ff17fdad8b6
p2670
aV54ff17fdadcc1
p2671
aV54ff17fdadf07
p2672
aV54ff17fd76c5e
p2673
aV54ff17fdae7a7
p2674
aV54ff17fe8cfbe
p2675
aV54ff17fd76d55
p2676
aV54ff17fdad054
p2677
aV54ff17ff26940
p2678
aV54ff180064bab
p2679
aV54ff180064e0b
p2680
aV54ff17fead65f
p2681
aV54ff17fedfd60
p2682
aV54ff17fee15d0
p2683
aV54ff17fde895a
p2684
aV54ff17fedebfc
p2685
aV54ff17fe5aa3a
p2686
aV54ff17fe5b7a7
p2687
aV54ff18008cc0a
p2688
aV54ff18008cd36
p2689
aV54ff17fee0ae4
p2690
aV54ff17fdaeb01
p2691
aV54ff17feaebd2
p2692
aV54ff17feaee70
p2693
aV54ff17feaf71b
p2694
aV54ff17fde72a9
p2695
aV54ff17fde76da
p2696
aV54ff17fde793f
p2697
aV54ff17fdad53b
p2698
aV54ff17fdadbc6
p2699
aV54ff17fde5d37
p2700
aV54ff17fedf0a7
p2701
aV54ff17fedf2e2
p2702
aV54ff17fedf3d6
p2703
aV54ff17fedf720
p2704
aV54ff17fedff72
p2705
aV54ff18008c9b0
p2706
aV54ff17fe5ae55
p2707
aV54ff17fe5af9a
p2708
aV54ff17fe5b02a
p2709
aV54ff17fee2270
p2710
aV54ff17fe27a35
p2711
aV54ff17fe27bb5
p2712
aV54ff17fee01d8
p2713
aV54ff17fde8b31
p2714
aV54ff17fe27811
p2715
aV54ff1803efcf2
p2716
aV54ff1805b3728
p2717
aV54ff180752bac
p2718
aV54ff17fde7b80
p2719
aV54ff17fde7f0e
p2720
aV54ff17fde82ba
p2721
aV54ff17feafb5c
p2722
aV54ff17feafcd1
p2723
aV54ff17feafef7
p2724
aV54ff17fedeab9
p2725
aV54ff17fe285a3
p2726
aV54ff17fee11b5
p2727
aV54ff17feaef65
p2728
aV54ff17feaf5b2
p2729
aV54ff17fde7db2
p2730
aV54ff17fde8464
p2731
aV54ff17fde85d7
p2732
aV54ff17feaf987
p2733
aV54ff17fe5b1b1
p2734
aV54ff17ff26d5b
p2735
aV54ff17fee02eb
p2736
aV54ff18067b378
p2737
aV54ff18067b448
p2738
aV54ff18077b4f0
p2739
aV54ff180246fba
p2740
aV54ff1800be06e
p2741
aV54ff1800be152
p2742
aV54ff1800e4443
p2743
aV54ff180752c9d
p2744
aV54ff180752ffb
p2745
aV54ff1807530bc
p2746
aV54ff180866811
p2747
aV54ff18061e3e2
p2748
aV54ff17fedf5ea
p2749
aV54ff17fedf91a
p2750
aV54ff17fee05e1
p2751
aV54ff17fee0757
p2752
aV54ff17fee0997
p2753
aV54ff17fde8bf6
p2754
aV54ff17fde8ceb
p2755
aV54ff17fe26e15
p2756
aV54ff17fe27344
p2757
aV54ff17fee2564
p2758
aV54ff18067bc88
p2759
aV54ff18067bd22
p2760
aV54ff1808b23a9
p2761
aV54ff1808de0a7
p2762
aV54ff1800e4570
p2763
aV54ff180247104
p2764
aV54ff18024726d
p2765
aV54ff180247325
p2766
aV54ff180753493
p2767
aV54ff180a3277f
p2768
aV54ff180a328db
p2769
aV54ff180867143
p2770
aV54ff18086736a
p2771
aV54ff180867453
p2772
aV54ff180a32d8c
p2773
aV54ff17fe275b7
p2774
aV54ff17fe276f6
p2775
aV54ff17fde6ead
p2776
aV54ff17fde8da7
p2777
aV54ff17fde8e67
p2778
aV54ff17fe27095
p2779
aV54ff17fde6791
p2780
aV54ff17ff26824
p2781
aV54ff17fe27926
p2782
aV54ff17fee0897
p2783
aV54ff180441d66
p2784
aV54ff1800e6db2
p2785
aV54ff18026d9fc
p2786
aV54ff18067c198
p2787
aV54ff18067c3dc
p2788
aV54ff1808de698
p2789
aV54ff1808de9e9
p2790
aV54ff18067c681
p2791
aV54ff18067c718
p2792
aV54ff1806a7079
p2793
aV54ff1808decda
p2794
aV54ff1800e4880
p2795
aV54ff18026bc4a
p2796
aV54ff180a32ef4
p2797
aV54ff180a32f83
p2798
aV54ff180a56034
p2799
aV54ff18088aee7
p2800
aV54ff18088b126
p2801
aV54ff18088b361
p2802
aV54ff180754573
p2803
aV54ff180778d82
p2804
aV54ff180a56534
p2805
aV54ff17fe29e20
p2806
aV54ff17ff27cf3
p2807
aV54ff17ff28514
p2808
aV54ff180442043
p2809
aV54ff18026ddbc
p2810
aV54ff18026e158
p2811
aV54ff1802a2316
p2812
aV54ff1808df057
p2813
aV54ff1808df13f
p2814
aV54ff1808df3bb
p2815
aV54ff1800e5511
p2816
aV54ff18026c503
p2817
aV54ff18026c70b
p2818
aV54ff18044111d
p2819
aV54ff18088bc0d
p2820
aV54ff18088bd15
p2821
aV54ff18077908e
p2822
aV54ff1807792de
p2823
aV54ff180779704
p2824
aV54ff18088c4d2
p2825
aV54ff17fe5b236
p2826
aV54ff17fe28c20
p2827
aV54ff17fe5bb91
p2828
aV54ff18008cab8
p2829
aV54ff1802a2520
p2830
aV54ff1802a2640
p2831
aV54ff17ffd45e7
p2832
aV54ff18046480d
p2833
aV54ff1802a2c21
p2834
aV54ff1804411ec
p2835
aV54ff1800e60dc
p2836
aV54ff18026ce49
p2837
aV54ff18026d025
p2838
aV54ff1800e6689
p2839
aV54ff180a56806
p2840
aV54ff18088cb54
p2841
aV54ff17ff27add
p2842
aV54ff17fe5af0f
p2843
aV54ff1800e5607
p2844
aV54ff1800e5878
p2845
aV54ff1802a2ee5
p2846
aV54ff17ffd5903
p2847
aV54ff18011d0ee
p2848
aV54ff18046639c
p2849
aV54ff180466790
p2850
aV54ff1808e04b3
p2851
aV54ff1808e0af6
p2852
aV54ff18026d683
p2853
aV54ff18026d758
p2854
aV54ff18026d828
p2855
aV54ff18026db18
p2856
aV54ff1800e739c
p2857
aV54ff18026de8b
p2858
aV54ff1808af20a
p2859
aV54ff1808afab6
p2860
aV54ff18077a418
p2861
aV54ff180a57a67
p2862
aV54ff180c41921
p2863
aV54ff180a31663
p2864
aV54ff180b50588
p2865
aV54ff1800e5998
p2866
aV54ff1800e643a
p2867
aV54ff18026cabf
p2868
aV54ff18026cba8
p2869
aV54ff18026cf1c
p2870
aV54ff18044173a
p2871
aV54ff17ffd6007
p2872
aV54ff17ffd663f
p2873
aV54ff18011d70a
p2874
aV54ff18011dd73
p2875
aV54ff1802a452c
p2876
aV54ff1802a4829
p2877
aV54ff180466b79
p2878
aV54ff1806a8e25
p2879
aV54ff1806a90f9
p2880
aV54ff1808e0e6a
p2881
aV54ff1802a286e
p2882
aV54ff180442be8
p2883
aV54ff18011c455
p2884
aV54ff18011c943
p2885
aV54ff180b50be8
p2886
aV54ff180c42195
p2887
aV54ff180a31d8e
p2888
aV54ff180a31ed7
p2889
aV54ff180b513be
p2890
aV54ff1800e6871
p2891
aV54ff1800e6a3f
p2892
aV54ff1800e6ea5
p2893
aV54ff180442136
p2894
aV54ff18044262a
p2895
aV54ff17ffd6812
p2896
aV54ff17ffd6ac3
p2897
aV54ff1804672fe
p2898
aV54ff18048d436
p2899
aV54ff18048da1d
p2900
aV54ff18091911e
p2901
aV54ff1806a9448
p2902
aV54ff1806a957b
p2903
aV54ff17ffd59f3
p2904
aV54ff17ffd5bfa
p2905
aV54ff18011cef2
p2906
aV54ff180b51726
p2907
aV54ff180b51ba3
p2908
aV54ff180b51c68
p2909
aV54ff180a323a9
p2910
aV54ff180da6288
p2911
aV54ff180b51ed7
p2912
aV54ff180b51f9d
p2913
aV54ff180b52128
p2914
aV54ff18026df7c
p2915
aV54ff17ffd44ad
p2916
aV54ff18011cb1b
p2917
aV54ff1802a29a7
p2918
aV54ff18014b142
p2919
aV54ff1802d0709
p2920
aV54ff1802d0a51
p2921
aV54ff18048e0a7
p2922
aV54ff18048e8e3
p2923
aV54ff1806cdb34
p2924
aV54ff1806cdd98
p2925
aV54ff18091a029
p2926
aV54ff18046653e
p2927
aV54ff180b75d52
p2928
aV54ff180da70e4
p2929
aV54ff180c44367
p2930
aV54ff180b760ea
p2931
aV54ff180b76178
p2932
aV54ff180b763aa
p2933
aV54ff180da74dc
p2934
aV54ff180c449d0
p2935
aV54ff180c44bbd
p2936
aV54ff180c732a1
p2937
aV54ff1802a353a
p2938
aV54ff18046667a
p2939
aV54ff18046693f
p2940
aV54ff180245c6e
p2941
aV54ff17ff71824
p2942
aV54ff180422045
p2943
aV54ff18091a54e
p2944
aV54ff18091a815
p2945
aV54ff1806ce29c
p2946
aV54ff1806ce5a4
p2947
aV54ff1806ce688
p2948
aV54ff1802a3f1d
p2949
aV54ff180013bfe
p2950
aV54ff18048d34f
p2951
aV54ff1802a63fc
p2952
aV54ff1802cfd47
p2953
aV54ff18048d894
p2954
aV54ff180dd0d75
p2955
aV54ff180c736ab
p2956
aV54ff180c73dfc
p2957
aV54ff180b76eed
p2958
aV54ff180b76f71
p2959
aV54ff180b76ff5
p2960
aV54ff180b77082
p2961
aV54ff1802a46cf
p2962
aV54ff180466c50
p2963
aV54ff180467052
p2964
aV54ff18046710e
p2965
aV54ff1802a6348
p2966
aV54ff18042242b
p2967
aV54ff1800bd2d7
p2968
aV54ff1802467a8
p2969
aV54ff180246868
p2970
aV54ff180422a01
p2971
aV54ff1806ceaec
p2972
aV54ff1806ceec1
p2973
aV54ff1806cef79
p2974
aV54ff18091b9e3
p2975
aV54ff18048d96f
p2976
aV54ff180014173
p2977
aV54ff1800143aa
p2978
aV54ff18011e83c
p2979
aV54ff1802d080d
p2980
aV54ff18048e804
p2981
aV54ff180c74578
p2982
aV54ff180c74be0
p2983
aV54ff180dd1b88
p2984
aV54ff180dd1faa
p2985
aV54ff180c74cd4
p2986
aV54ff180c74f72
p2987
aV54ff17ffd6b9a
p2988
aV54ff180013d2e
p2989
aV54ff180013f82
p2990
aV54ff18011e155
p2991
aV54ff18011e275
p2992
aV54ff18011e41b
p2993
aV54ff18011e6f3
p2994
aV54ff180246b15
p2995
aV54ff180246f1a
p2996
aV54ff18091be7b
p2997
aV54ff180a33022
p2998
aV54ff18088b2bc
p2999
aV54ff180653432
p3000
aV54ff180754401
p3001
aV54ff1807544d0
p3002
aV54ff18048ec71
p3003
aV54ff18014b7b7
p3004
aV54ff18021b791
p3005
aV54ff1803c47bd
p3006
aV54ff1803c4b2f
p3007
aV54ff18057bf3c
p3008
aV54ff18057c3a0
p3009
aV54ff18048df8b
p3010
aV54ff18011eae9
p3011
aV54ff17ffa3a31
p3012
aV54ff18026c121
p3013
aV54ff18026c5ff
p3014
aV54ff180a563c0
p3015
aV54ff180a5664a
p3016
aV54ff180a566db
p3017
aV54ff18088b5b4
p3018
aV54ff18088b7ce
p3019
aV54ff18077917b
p3020
aV54ff18065408c
p3021
aV54ff18014bd64
p3022
aV54ff18048fdfa
p3023
aV54ff17ff4bf53
p3024
aV54ff17ff4c1e9
p3025
aV54ff17ff4c4c3
p3026
aV54ff17fe8c9d9
p3027
aV54ff1803c51c6
p3028
aV54ff18057cd68
p3029
aV54ff18057ce64
p3030
aV54ff18057d401
p3031
aV54ff18021c814
p3032
aV54ff1804bfda9
p3033
aV54ff1804c016f
p3034
aV54ff18026c8e0
p3035
aV54ff180440bb4
p3036
aV54ff1800e623e
p3037
aV54ff1800e6579
p3038
aV54ff18026cc8e
p3039
aV54ff18026cd77
p3040
aV54ff1808aeaed
p3041
aV54ff1808aec91
p3042
aV54ff180779df5
p3043
aV54ff180a57161
p3044
aV54ff180654c06
p3045
aV54ff180654cc8
p3046
aV54ff18008f210
p3047
aV54ff18021dd15
p3048
aV54ff18021e0bf
p3049
aV54ff18021e1c2
p3050
aV54ff17ff70b06
p3051
aV54ff1803f0701
p3052
aV54ff1800bb7e5
p3053
aV54ff1803c5d98
p3054
aV54ff18057e03c
p3055
aV54ff180177067
p3056
aV54ff180177598
p3057
aV54ff180333392
p3058
aV54ff1801779fd
p3059
aV54ff18026d28d
p3060
aV54ff18008e4c7
p3061
aV54ff17ff4c081
p3062
aV54ff1808af017
p3063
aV54ff1808af598
p3064
aV54ff180a57647
p3065
aV54ff180a57762
p3066
aV54ff1800bba1e
p3067
aV54ff18021e4dd
p3068
aV54ff1800bc2c9
p3069
aV54ff180421b13
p3070
aV54ff180727c7c
p3071
aV54ff1805b1f9e
p3072
aV54ff180618a2c
p3073
aV54ff180728078
p3074
aV54ff18072813c
p3075
aV54ff180751d64
p3076
aV54ff1803ef1e5
p3077
aV54ff180177d02
p3078
aV54ff180333594
p3079
aV54ff1801a3330
p3080
aV54ff17fe8cd56
p3081
aV54ff18008ef31
p3082
aV54ff18021da15
p3083
aV54ff17ff4ca59
p3084
aV54ff17ff70b9d
p3085
aV54ff1803f0829
p3086
aV54ff18008f681
p3087
aV54ff17ff70dc8
p3088
aV54ff1808b002c
p3089
aV54ff18077ad33
p3090
aV54ff180a57ce0
p3091
aV54ff180a57d6d
p3092
aV54ff18067ab72
p3093
aV54ff18067b006
p3094
aV54ff1808b0f06
p3095
aV54ff180a85852
p3096
aV54ff180421d3f
p3097
aV54ff1800bceef
p3098
aV54ff180245ba5
p3099
aV54ff180245df2
p3100
aV54ff180245ec7
p3101
aV54ff180245f6e
p3102
aV54ff180421fcd
p3103
aV54ff1800bd06b
p3104
aV54ff1800bd1f7
p3105
aV54ff1805b2c9e
p3106
aV54ff1807526f2
p3107
aV54ff180b9a8fc
p3108
aV54ff180b9a9c1
p3109
aV54ff180b9aa7e
p3110
aV54ff180af1a41
p3111
aV54ff1809a1775
p3112
aV54ff180505fa6
p3113
aV54ff180334218
p3114
aV54ff1803343ca
p3115
aV54ff1800bc3b6
p3116
aV54ff180245b00
p3117
aV54ff18021d529
p3118
aV54ff1803ee45d
p3119
aV54ff1803ee87b
p3120
aV54ff18057e46f
p3121
aV54ff18057ec35
p3122
aV54ff1805b1732
p3123
aV54ff1800bd680
p3124
aV54ff1800bda71
p3125
aV54ff1809a18d1
p3126
aV54ff180b9b3fa
p3127
aV54ff18081a4b4
p3128
aV54ff18081a8f1
p3129
aV54ff1809a1d20
p3130
aV54ff1809a1f77
p3131
aV54ff1809a216b
p3132
aV54ff180b9b6e5
p3133
aV54ff180b9b7b0
p3134
aV54ff18081ac2b
p3135
aV54ff1805064e2
p3136
aV54ff1801a3eeb
p3137
aV54ff1803346bb
p3138
aV54ff180529f39
p3139
aV54ff1801a4a7d
p3140
aV54ff18008d93e
p3141
aV54ff18008db1b
p3142
aV54ff1807275ad
p3143
aV54ff180727857
p3144
aV54ff1805b218f
p3145
aV54ff180618b56
p3146
aV54ff180618fdf
p3147
aV54ff1800bdd81
p3148
aV54ff17ff4a16a
p3149
aV54ff17ff4a253
p3150
aV54ff18008d1f9
p3151
aV54ff18008d346
p3152
aV54ff180841d36
p3153
aV54ff180b9bfe8
p3154
aV54ff180b9c0e2
p3155
aV54ff1809d0da8
p3156
aV54ff1809d1183
p3157
aV54ff18052a491
p3158
aV54ff1803f0b4f
p3159
aV54ff1800bc0fb
p3160
aV54ff17fe5ab68
p3161
aV54ff1807522c0
p3162
aV54ff18075278f
p3163
aV54ff17fe8b611
p3164
aV54ff18008dbf8
p3165
aV54ff18008dd1a
p3166
aV54ff17ff4b49c
p3167
aV54ff17ff4b57e
p3168
aV54ff180bc327c
p3169
aV54ff1809d1760
p3170
aV54ff1809d1b32
p3171
aV54ff1809d1ed3
p3172
aV54ff1809d2dff
p3173
aV54ff180245871
p3174
aV54ff180421cb9
p3175
aV54ff1800bc944
p3176
aV54ff17ff718c1
p3177
aV54ff18006457b
p3178
aV54ff17ff287e1
p3179
aV54ff17ff28aa5
p3180
aV54ff180866d68
p3181
aV54ff1807533f5
p3182
aV54ff180753573
p3183
aV54ff18075364e
p3184
aV54ff180a3296c
p3185
aV54ff180a32a0f
p3186
aV54ff180a32aa7
p3187
aV54ff17fe5b81c
p3188
aV54ff17fe5baf3
p3189
aV54ff1809d2fa6
p3190
aV54ff1809d3393
p3191
aV54ff180bc3fa2
p3192
aV54ff180bc40a1
p3193
aV54ff180bc416c
p3194
aV54ff180843c4e
p3195
aV54ff1809d3e48
p3196
aV54ff1808649fd
p3197
aV54ff1802464ce
p3198
aV54ff18024691e
p3199
aV54ff17ff72193
p3200
aV54ff180422878
p3201
aV54ff1800bdc9f
p3202
aV54ff18008ce7d
p3203
aV54ff18008d6a7
p3204
aV54ff18052ab55
p3205
aV54ff18088a51e
p3206
aV54ff180753a7d
p3207
aV54ff180753b73
p3208
aV54ff180753c36
p3209
aV54ff180753f15
p3210
aV54ff180754057
p3211
aV54ff180754336
p3212
aV54ff18088a71b
p3213
aV54ff18088a93c
p3214
aV54ff17ff272eb
p3215
aV54ff17ff27583
p3216
aV54ff17fe5addf
p3217
aV54ff17fe5b0b6
p3218
aV54ff17fe5b4a8
p3219
aV54ff17fe5b50c
p3220
aV54ff180b1fb53
p3221
aV54ff180b20163
p3222
aV54ff180bc49bd
p3223
aV54ff18094d678
p3224
aV54ff1806ee14b
p3225
aV54ff18094dd50
p3226
aV54ff180246dd8
p3227
aV54ff180422ba9
p3228
aV54ff1800bdf6c
p3229
aV54ff1801c8f28
p3230
aV54ff18052ae10
p3231
aV54ff1801c9ad1
p3232
aV54ff1801c9ea9
p3233
aV54ff18088aa29
p3234
aV54ff18088acb2
p3235
aV54ff18088ad72
p3236
aV54ff180a324a2
p3237
aV54ff180da6014
p3238
aV54ff180c43169
p3239
aV54ff180da6e4e
p3240
aV54ff18014c3e7
p3241
aV54ff1802f3dcb
p3242
aV54ff18094de70
p3243
aV54ff1806eec02
p3244
aV54ff1800e429e
p3245
aV54ff18026b68a
p3246
aV54ff1800e49a5
p3247
aV54ff1800e4d50
p3248
aV54ff1801ca527
p3249
aV54ff180c4417a
p3250
aV54ff180c44530
p3251
aV54ff180b7632d
p3252
aV54ff180da76b1
p3253
aV54ff180c73072
p3254
aV54ff180b768ef
p3255
aV54ff180b76b67
p3256
aV54ff180c738c8
p3257
aV54ff18014c856
p3258
aV54ff18026bd0f
p3259
aV54ff18026bf4f
p3260
aV54ff17ffa3904
p3261
aV54ff17ffa417e
p3262
aV54ff18048e229
p3263
aV54ff18048e572
p3264
aV54ff1801caa57
p3265
aV54ff1805427b4
p3266
aV54ff180542d85
p3267
aV54ff180b76db2
p3268
aV54ff180b771ba
p3269
aV54ff180c74a24
p3270
aV54ff180dd1c2f
p3271
aV54ff180dd1d99
p3272
aV54ff180c75559
p3273
aV54ff180dd22fd
p3274
aV54ff180dd24a9
p3275
aV54ff180dd2564
p3276
aV54ff1802f3ec6
p3277
aV54ff1802f3fdf
p3278
aV54ff180300116
p3279
aV54ff180300382
p3280
aV54ff1804be5d8
p3281
aV54ff18014cc09
p3282
aV54ff18014ce7b
p3283
aV54ff1809538e4
p3284
aV54ff18048ea0d
p3285
aV54ff1802d0dea
p3286
aV54ff18014b4d5
p3287
aV54ff1802d1960
p3288
aV54ff180399ad2
p3289
aV54ff180543bc7
p3290
aV54ff1801e9222
p3291
aV54ff180c75f65
p3292
aV54ff180c7ac90
p3293
aV54ff180cae0ff
p3294
aV54ff180cae6b7
p3295
aV54ff180174e69
p3296
aV54ff18003ca20
p3297
aV54ff1806efb8b
p3298
aV54ff180725815
p3299
aV54ff180725904
p3300
aV54ff18097932e
p3301
aV54ff18014bb88
p3302
aV54ff1802f3a95
p3303
aV54ff1802f3b89
p3304
aV54ff1802f3c6c
p3305
aV54ff18003bd89
p3306
aV54ff1801e9a81
p3307
aV54ff180544fb7
p3308
aV54ff18054509f
p3309
aV54ff18054555c
p3310
aV54ff1801ea2ef
p3311
aV54ff1801ea917
p3312
aV54ff1801ea9e6
p3313
aV54ff180caf078
p3314
aV54ff180caf484
p3315
aV54ff180e1182a
p3316
aV54ff180e11c2d
p3317
aV54ff180e11e7a
p3318
aV54ff180e12050
p3319
aV54ff180cb0525
p3320
aV54ff18030135f
p3321
aV54ff1804bf7f2
p3322
aV54ff18003d1aa
p3323
aV54ff180301c4b
p3324
aV54ff1804bfed9
p3325
aV54ff1804c0282
p3326
aV54ff1807261f2
p3327
aV54ff18072672f
p3328
aV54ff1807dbb29
p3329
aV54ff1807dc015
p3330
aV54ff1807dc476
p3331
aV54ff180979ae6
p3332
aV54ff180979c38
p3333
aV54ff18014c928
p3334
aV54ff180300271
p3335
aV54ff1804be099
p3336
aV54ff1804be7b3
p3337
aV54ff180300d02
p3338
aV54ff1801eab8d
p3339
aV54ff18039ac62
p3340
aV54ff180545c69
p3341
aV54ff18057a9fd
p3342
aV54ff18057ab62
p3343
aV54ff180953edb
p3344
aV54ff1809782c5
p3345
aV54ff1806efd59
p3346
aV54ff180177135
p3347
aV54ff18017728c
p3348
aV54ff1801774e3
p3349
aV54ff180332e97
p3350
aV54ff1807dd5a4
p3351
aV54ff1807dd78f
p3352
aV54ff1807dda0b
p3353
aV54ff18097a21b
p3354
aV54ff18097a30a
p3355
aV54ff1808afc89
p3356
aV54ff1803011c1
p3357
aV54ff1804bf6f3
p3358
aV54ff18003cfc5
p3359
aV54ff180175c98
p3360
aV54ff18057acc3
p3361
aV54ff18057ae3f
p3362
aV54ff1803c3fdd
p3363
aV54ff1803c4223
p3364
aV54ff18057b20b
p3365
aV54ff180725647
p3366
aV54ff180978e78
p3367
aV54ff180725d36
p3368
aV54ff180725eb1
p3369
aV54ff180504beb
p3370
aV54ff1801a2a24
p3371
aV54ff1808b0706
p3372
aV54ff18077aee6
p3373
aV54ff18077b2c9
p3374
aV54ff18077b38f
p3375
aV54ff180a57c57
p3376
aV54ff180a85576
p3377
aV54ff18067a9f2
p3378
aV54ff180301b84
p3379
aV54ff1803c4683
p3380
aV54ff18057c8d2
p3381
aV54ff18057b4e8
p3382
aV54ff18057b90d
p3383
aV54ff18057ba76
p3384
aV54ff18057bbcb
p3385
aV54ff1801eb87c
p3386
aV54ff18021b3a4
p3387
aV54ff18021b697
p3388
aV54ff180725f71
p3389
aV54ff180726037
p3390
aV54ff180726126
p3391
aV54ff1801a2b1e
p3392
aV54ff18036562d
p3393
aV54ff1808b1a99
p3394
aV54ff1808b1c22
p3395
aV54ff18021c4d8
p3396
aV54ff18021c70d
p3397
aV54ff1803c5749
p3398
aV54ff1803c58b2
p3399
aV54ff1803c5953
p3400
aV54ff18014b262
p3401
aV54ff18048eb85
p3402
aV54ff18048ed7b
p3403
aV54ff1802d1524
p3404
aV54ff180726431
p3405
aV54ff180726570
p3406
aV54ff1807269b5
p3407
aV54ff180979dd0
p3408
aV54ff1807270e0
p3409
aV54ff180542484
p3410
aV54ff18067b9e3
p3411
aV54ff18021d192
p3412
aV54ff1803ee715
p3413
aV54ff1805b156a
p3414
aV54ff180727379
p3415
aV54ff18072775f
p3416
aV54ff1800158dc
p3417
aV54ff18048f639
p3418
aV54ff180015e1f
p3419
aV54ff1807dc9e1
p3420
aV54ff1807dcb3d
p3421
aV54ff1807dcf2f
p3422
aV54ff1807dd37c
p3423
aV54ff1807dd857
p3424
aV54ff18097a4d7
p3425
aV54ff18097a597
p3426
aV54ff180542ae9
p3427
aV54ff180543108
p3428
aV54ff180399979
p3429
aV54ff18054330b
p3430
aV54ff18067c493
p3431
aV54ff18067c52b
p3432
aV54ff1808de789
p3433
aV54ff1805b2339
p3434
aV54ff180618ebd
p3435
aV54ff180727f4f
p3436
aV54ff18075203b
p3437
aV54ff18014c1b7
p3438
aV54ff1802d5e17
p3439
aV54ff1807de30b
p3440
aV54ff1809a072f
p3441
aV54ff1807de848
p3442
aV54ff1808183b3
p3443
aV54ff1808184a2
p3444
aV54ff180818579
p3445
aV54ff180b777b5
p3446
aV54ff180b77a02
p3447
aV54ff180543d54
p3448
aV54ff1801e90d7
p3449
aV54ff180544795
p3450
aV54ff1805448e4
p3451
aV54ff1806a6bb4
p3452
aV54ff1806a6d2b
p3453
aV54ff1808dee85
p3454
aV54ff1808df4f6
p3455
aV54ff1807524a1
p3456
aV54ff1807529b3
p3457
aV54ff18052a8e3
p3458
aV54ff1800166f6
p3459
aV54ff18014ca00
p3460
aV54ff18014cabb
p3461
aV54ff1804bde5d
p3462
aV54ff1804be374
p3463
aV54ff1804be4af
p3464
aV54ff180b99af9
p3465
aV54ff180818ad8
p3466
aV54ff180818c32
p3467
aV54ff180818db2
p3468
aV54ff180b99cbe
p3469
aV54ff1809d12cd
p3470
aV54ff1809d14a5
p3471
aV54ff1805449b9
p3472
aV54ff1801ea111
p3473
aV54ff180545185
p3474
aV54ff18054539a
p3475
aV54ff1801ea5a1
p3476
aV54ff1806a73b0
p3477
aV54ff1808dfda4
p3478
aV54ff18052aa2d
p3479
aV54ff1801c9367
p3480
aV54ff18052aff1
p3481
aV54ff18003bfd0
p3482
aV54ff180174d42
p3483
aV54ff180300f6d
p3484
aV54ff1804beac3
p3485
aV54ff1803012a4
p3486
aV54ff180842c7a
p3487
aV54ff180bc39a4
p3488
aV54ff180bc3bb2
p3489
aV54ff1809d211a
p3490
aV54ff180842f7d
p3491
aV54ff1809d2ca0
p3492
aV54ff1809d2ec6
p3493
aV54ff180545b5e
p3494
aV54ff1801eb436
p3495
aV54ff1803c4080
p3496
aV54ff1803c436a
p3497
aV54ff1803c4511
p3498
aV54ff18057afaa
p3499
aV54ff18057b3c5
p3500
aV54ff1808e01d6
p3501
aV54ff1808e07dd
p3502
aV54ff180365155
p3503
aV54ff18052b259
p3504
aV54ff1801ca0e8
p3505
aV54ff1803019ac
p3506
aV54ff1804bf175
p3507
aV54ff1804bf346
p3508
aV54ff1804bf416
p3509
aV54ff1809d30e5
p3510
aV54ff180b1f295
p3511
aV54ff180b1f40f
p3512
aV54ff180b1f4ba
p3513
aV54ff180b1f8b3
p3514
aV54ff1801eb5db
p3515
aV54ff1801eb6a0
p3516
aV54ff1801eb791
p3517
aV54ff18021b2bd
p3518
aV54ff1803c4a46
p3519
aV54ff18057c154
p3520
aV54ff18057c558
p3521
aV54ff1809d423e
p3522
aV54ff1809d4308
p3523
aV54ff180a0add3
p3524
aV54ff180864d64
p3525
aV54ff180b20a9d
p3526
aV54ff180bc52f1
p3527
aV54ff180c0c1c0
p3528
aV54ff180c0c348
p3529
aV54ff180398d90
p3530
aV54ff1805423c6
p3531
aV54ff1801cadba
p3532
aV54ff1804bfb74
p3533
aV54ff1804bfc5c
p3534
aV54ff180b1fa42
p3535
aV54ff180b1fc63
p3536
aV54ff180b1fd6a
p3537
aV54ff180a0ab47
p3538
aV54ff180a0afac
p3539
aV54ff180b20c08
p3540
aV54ff180a0b603
p3541
aV54ff18021be3f
p3542
aV54ff18021c318
p3543
aV54ff1803c5502
p3544
aV54ff18057d30a
p3545
aV54ff180a0b707
p3546
aV54ff180a0baa7
p3547
aV54ff180865940
p3548
aV54ff180c0c90c
p3549
aV54ff18086645b
p3550
aV54ff180a0beea
p3551
aV54ff180b217a8
p3552
aV54ff180a0c421
p3553
aV54ff180a0c743
p3554
aV54ff1803998a9
p3555
aV54ff18054347d
p3556
aV54ff180176d0b
p3557
aV54ff180177796
p3558
aV54ff180333052
p3559
aV54ff18086574c
p3560
aV54ff180865a74
p3561
aV54ff180865b75
p3562
aV54ff180865c40
p3563
aV54ff180c0cb42
p3564
aV54ff18086664e
p3565
aV54ff180a0bb69
p3566
aV54ff18057d506
p3567
aV54ff18021ca52
p3568
aV54ff18021cb53
p3569
aV54ff18021cd67
p3570
aV54ff1805f11ab
p3571
aV54ff18088a32a
p3572
aV54ff180a0c9c9
p3573
aV54ff180b21ce0
p3574
aV54ff180b4f44d
p3575
aV54ff180b4f7c4
p3576
aV54ff180d65ef6
p3577
aV54ff180a0d1b7
p3578
aV54ff180c0e779
p3579
aV54ff180a0d474
p3580
aV54ff18039a192
p3581
aV54ff18054456a
p3582
aV54ff180504610
p3583
aV54ff180177acd
p3584
aV54ff1801a293a
p3585
aV54ff180a0be36
p3586
aV54ff180a0c1f9
p3587
aV54ff180b2164a
p3588
aV54ff180b21bb5
p3589
aV54ff180c0d526
p3590
aV54ff180c0d5dc
p3591
aV54ff180a0c579
p3592
aV54ff180b21dc4
p3593
aV54ff180b21fe0
p3594
aV54ff180753e0e
p3595
aV54ff18075415f
p3596
aV54ff180754248
p3597
aV54ff18088a7c6
p3598
aV54ff180a32e57
p3599
aV54ff180a0d551
p3600
aV54ff180a30af4
p3601
aV54ff180a30c34
p3602
aV54ff180b4fe4c
p3603
aV54ff180d6674e
p3604
aV54ff18039a786
p3605
aV54ff18039a868
p3606
aV54ff18039a94b
p3607
aV54ff18039ab8a
p3608
aV54ff1805452b7
p3609
aV54ff180545733
p3610
aV54ff1801ea740
p3611
aV54ff1801a2f22
p3612
aV54ff180333cef
p3613
aV54ff1801a3470
p3614
aV54ff180d660d9
p3615
aV54ff180a0d05e
p3616
aV54ff180a0d10a
p3617
aV54ff180a0d2a8
p3618
aV54ff180a0d616
p3619
aV54ff180b4ff49
p3620
aV54ff180a55fc7
p3621
aV54ff180a5615b
p3622
aV54ff18088b1db
p3623
aV54ff18065308f
p3624
aV54ff180754604
p3625
aV54ff180778c04
p3626
aV54ff180a5646b
p3627
aV54ff1807de131
p3628
aV54ff1807de42d
p3629
aV54ff18097a9e6
p3630
aV54ff180b77354
p3631
aV54ff180b77405
p3632
aV54ff180b77599
p3633
aV54ff180545839
p3634
aV54ff1801eae1b
p3635
aV54ff1801eaefc
p3636
aV54ff1801eb286
p3637
aV54ff1803c4190
p3638
aV54ff18021b19c
p3639
aV54ff1803344f7
p3640
aV54ff180506887
p3641
aV54ff1801a4074
p3642
aV54ff1801a419a
p3643
aV54ff180d66ad8
p3644
aV54ff180c0ebb5
p3645
aV54ff180a30fcb
p3646
aV54ff180a310d6
p3647
aV54ff180a3174d
p3648
aV54ff180a31831
p3649
aV54ff180b50376
p3650
aV54ff180b507b6
p3651
aV54ff180a56768
p3652
aV54ff1807797d7
p3653
aV54ff18088c053
p3654
aV54ff18088c6fd
p3655
aV54ff180a568b2
p3656
aV54ff180b77727
p3657
aV54ff180818672
p3658
aV54ff180b778bf
p3659
aV54ff180b999fd
p3660
aV54ff180818886
p3661
aV54ff1809a0a7f
p3662
aV54ff1809a0f4e
p3663
aV54ff180ac9753
p3664
aV54ff180ac9885
p3665
aV54ff18008e5da
p3666
aV54ff18008e771
p3667
aV54ff18008eaa2
p3668
aV54ff18008eff7
p3669
aV54ff18008f159
p3670
aV54ff18033459e
p3671
aV54ff18033474b
p3672
aV54ff180506a83
p3673
aV54ff1801a47ee
p3674
aV54ff180b50cf8
p3675
aV54ff180da4c14
p3676
aV54ff180c41d38
p3677
aV54ff180a32012
p3678
aV54ff180a320a8
p3679
aV54ff180b50f15
p3680
aV54ff1806541c9
p3681
aV54ff18065459f
p3682
aV54ff1808aee9a
p3683
aV54ff180779bce
p3684
aV54ff180a56ed6
p3685
aV54ff180654a24
p3686
aV54ff180b9a149
p3687
aV54ff180b9a35e
p3688
aV54ff180818fe2
p3689
aV54ff180ac9f36
p3690
aV54ff1809a1073
p3691
aV54ff18021dbfc
p3692
aV54ff17ff4c6c2
p3693
aV54ff17ff70983
p3694
aV54ff1803f0998
p3695
aV54ff18021e3c1
p3696
aV54ff18021e6e3
p3697
aV54ff1802452d5
p3698
aV54ff18036291d
p3699
aV54ff180363256
p3700
aV54ff1803633d6
p3701
aV54ff18052a2e3
p3702
aV54ff1801a53af
p3703
aV54ff180b99e8c
p3704
aV54ff180b9a526
p3705
aV54ff180819128
p3706
aV54ff180819325
p3707
aV54ff1808193d0
p3708
aV54ff1808194c4
p3709
aV54ff180af13e5
p3710
aV54ff1808af3cc
p3711
aV54ff18077a72d
p3712
aV54ff180a57514
p3713
aV54ff180a575bd
p3714
aV54ff1809a11ae
p3715
aV54ff1809a1376
p3716
aV54ff1809a140e
p3717
aV54ff18091938c
p3718
aV54ff1809196b3
p3719
aV54ff1809197ad
p3720
aV54ff17ff4a387
p3721
aV54ff18008cf7d
p3722
aV54ff17fe8b23e
p3723
aV54ff180363706
p3724
aV54ff18057c68e
p3725
aV54ff18057ca36
p3726
aV54ff18021bc66
p3727
aV54ff18021bd74
p3728
aV54ff18021c0ff
p3729
aV54ff1809a0fd6
p3730
aV54ff1809a159a
p3731
aV54ff180b9a6ea
p3732
aV54ff180b9a83c
p3733
aV54ff1808199d1
p3734
aV54ff180819cc6
p3735
aV54ff180819da8
p3736
aV54ff1809a1828
p3737
aV54ff1809a1a0b
p3738
aV54ff1808b0899
p3739
aV54ff18077b092
p3740
aV54ff1808b09c4
p3741
aV54ff1808b12fc
p3742
aV54ff1808b148c
p3743
aV54ff18067b1fc
p3744
aV54ff180919f32
p3745
aV54ff18091a62d
p3746
aV54ff1806ce0e4
p3747
aV54ff1806ce34a
p3748
aV54ff18008de24
p3749
aV54ff18008df70
p3750
aV54ff18008e062
p3751
aV54ff17fe8c5dd
p3752
aV54ff180b50164
p3753
aV54ff180d66bca
p3754
aV54ff180da48d0
p3755
aV54ff1803c4f94
p3756
aV54ff1803c52dc
p3757
aV54ff1803c53cb
p3758
aV54ff18057cf4e
p3759
aV54ff18057d1f3
p3760
aV54ff18021c92f
p3761
aV54ff18021cc76
p3762
aV54ff180b9ad54
p3763
aV54ff180b9b00b
p3764
aV54ff180b9b15c
p3765
aV54ff180b9b214
p3766
aV54ff18081a3ff
p3767
aV54ff180af214e
p3768
aV54ff180b9b632
p3769
aV54ff18081ae4a
p3770
aV54ff18067b5d1
p3771
aV54ff18067b773
p3772
aV54ff1808b18de
p3773
aV54ff18091aefe
p3774
aV54ff18091b04e
p3775
aV54ff18091b7ee
p3776
aV54ff1806cf9fe
p3777
aV54ff180c41bf5
p3778
aV54ff180a31218
p3779
aV54ff180a31460
p3780
aV54ff180b5047a
p3781
aV54ff180b50664
p3782
aV54ff180c41f87
p3783
aV54ff180a31aa1
p3784
aV54ff180b51009
p3785
aV54ff180b510f2
p3786
aV54ff1803c59eb
p3787
aV54ff18057d617
p3788
aV54ff18057d6da
p3789
aV54ff18021d333
p3790
aV54ff180bc20b9
p3791
aV54ff1809d106b
p3792
aV54ff180bc282c
p3793
aV54ff180bc2a84
p3794
aV54ff1806cf4f1
p3795
aV54ff1808de25d
p3796
aV54ff18067c315
p3797
aV54ff18091c19d
p3798
aV54ff17fdae32d
p3799
aV54ff17fdae5d4
p3800
aV54ff17fe8d3a1
p3801
aV54ff17fdaf938
p3802
aV54ff180b511f3
p3803
aV54ff180b512e7
p3804
aV54ff180da5481
p3805
aV54ff180c43096
p3806
aV54ff18021d403
p3807
aV54ff1805f17e7
p3808
aV54ff1807274a0
p3809
aV54ff180727b9c
p3810
aV54ff18091bfe8
p3811
aV54ff1806cfbd8
p3812
aV54ff18067c909
p3813
aV54ff1808df243
p3814
aV54ff1806a727d
p3815
aV54ff17fead326
p3816
aV54ff17fde8727
p3817
aV54ff17fde887e
p3818
aV54ff17fede922
p3819
aV54ff17fdafdd9
p3820
aV54ff17fde5552
p3821
aV54ff17fde5691
p3822
aV54ff17feadb8b
p3823
aV54ff180b51ae9
p3824
aV54ff180a3225a
p3825
aV54ff180a325a5
p3826
aV54ff180b52069
p3827
aV54ff180b75ec4
p3828
aV54ff180da696b
p3829
aV54ff180da71d7
p3830
aV54ff1805b20ed
p3831
aV54ff180618978
p3832
aV54ff180751e79
p3833
aV54ff180751f56
p3834
aV54ff18094df4e
p3835
aV54ff18094e2af
p3836
aV54ff18094e3a0
p3837
aV54ff1806ee749
p3838
aV54ff1806a77b8
p3839
aV54ff1808dfa76
p3840
aV54ff1808dfb72
p3841
aV54ff1808dfc7e
p3842
aV54ff17fde7a2c
p3843
aV54ff17fde621a
p3844
aV54ff17feae095
p3845
aV54ff17fe27215
p3846
aV54ff180c43eff
p3847
aV54ff180c43ff5
p3848
aV54ff180c44688
p3849
aV54ff180b7620a
p3850
aV54ff180b7645c
p3851
aV54ff180b7656a
p3852
aV54ff180da73ec
p3853
aV54ff180dd08f9
p3854
aV54ff180c448f2
p3855
aV54ff1803ef733
p3856
aV54ff1805b2fda
p3857
aV54ff1807523a1
p3858
aV54ff180752606
p3859
aV54ff18094ebb9
p3860
aV54ff1806eea41
p3861
aV54ff1806eeb6c
p3862
aV54ff1808dffcf
p3863
aV54ff1800e53ea
p3864
aV54ff18026c23d
p3865
aV54ff18026c7ed
p3866
aV54ff17ffa4266
p3867
aV54ff17ffa4331
p3868
aV54ff1800e5a92
p3869
aV54ff1800e5d33
p3870
aV54ff1800e5e58
p3871
aV54ff180dd09d6
p3872
aV54ff180dd0a88
p3873
aV54ff180dd0b46
p3874
aV54ff180dd0cd3
p3875
aV54ff180dd0e2b
p3876
aV54ff180dd0f57
p3877
aV54ff180b77113
p3878
aV54ff180dd12b3
p3879
aV54ff1807528c5
p3880
aV54ff1803effd3
p3881
aV54ff1805b367a
p3882
aV54ff180752d38
p3883
aV54ff180752ea1
p3884
aV54ff180752f5a
p3885
aV54ff18094f5dc
p3886
aV54ff18094f6ac
p3887
aV54ff1806eefb8
p3888
aV54ff1806ef3c2
p3889
aV54ff1806a91e9
p3890
aV54ff1808e0bec
p3891
aV54ff1808e0d90
p3892
aV54ff1808e0f54
p3893
aV54ff17ffa4eb0
p3894
aV54ff180441997
p3895
aV54ff1800e6c6c
p3896
aV54ff18026dcf6
p3897
aV54ff180c7412e
p3898
aV54ff180c7439f
p3899
aV54ff180c753d3
p3900
aV54ff180b9a600
p3901
aV54ff180b9abeb
p3902
aV54ff180819ba4
p3903
aV54ff18081a0b1
p3904
aV54ff180866f52
p3905
aV54ff180a32835
p3906
aV54ff180a32b2b
p3907
aV54ff180a32c6a
p3908
aV54ff18086721b
p3909
aV54ff18061e79b
p3910
aV54ff1806529e8
p3911
aV54ff18094fbcf
p3912
aV54ff180953a6a
p3913
aV54ff1806ef7a2
p3914
aV54ff1806ef855
p3915
aV54ff1806ef963
p3916
aV54ff1806ef9ff
p3917
aV54ff17fd74ec8
p3918
aV54ff1806cd857
p3919
aV54ff1809194ae
p3920
aV54ff180919892
p3921
aV54ff180919db3
p3922
aV54ff180442407
p3923
aV54ff18011bf4c
p3924
aV54ff1809a1642
p3925
aV54ff1809a1aa0
p3926
aV54ff180b9adff
p3927
aV54ff180b9af60
p3928
aV54ff180b9b0b2
p3929
aV54ff1809a1e51
p3930
aV54ff180b9b569
p3931
aV54ff180b9bbbd
p3932
aV54ff180753d1d
p3933
aV54ff180a55ef9
p3934
aV54ff180a560c8
p3935
aV54ff18088b4dc
p3936
aV54ff180a561e8
p3937
aV54ff180a56289
p3938
aV54ff180a565bc
p3939
aV54ff18088b661
p3940
aV54ff17fdaedd4
p3941
aV54ff17fdaeedb
p3942
aV54ff17feac93f
p3943
aV54ff1806cd9e4
p3944
aV54ff1806cda96
p3945
aV54ff1806cdc9e
p3946
aV54ff18091a171
p3947
aV54ff18091a43c
p3948
aV54ff18011c595
p3949
aV54ff18011cc27
p3950
aV54ff180b9beda
p3951
aV54ff180bc2563
p3952
aV54ff180bc2de9
p3953
aV54ff1809d1cbc
p3954
aV54ff18088b8d5
p3955
aV54ff18088be2b
p3956
aV54ff180653861
p3957
aV54ff18088c2c0
p3958
aV54ff18088c86c
p3959
aV54ff180a56948
p3960
aV54ff17fdad1af
p3961
aV54ff17fe8cdf0
p3962
aV54ff17fe8d08f
p3963
aV54ff17fe8d197
p3964
aV54ff17fe8d2f8
p3965
aV54ff17fd54db2
p3966
aV54ff17fd73e72
p3967
aV54ff1806ce3fe
p3968
aV54ff1806ce4b6
p3969
aV54ff18021d25e
p3970
aV54ff18021d669
p3971
aV54ff1805f1380
p3972
aV54ff17ffd56fc
p3973
aV54ff17ffd57eb
p3974
aV54ff17ffd5b0d
p3975
aV54ff18011d25d
p3976
aV54ff1802a3bca
p3977
aV54ff180842b07
p3978
aV54ff180842bca
p3979
aV54ff180af34ac
p3980
aV54ff180b1eeab
p3981
aV54ff180bc3446
p3982
aV54ff180bc38e3
p3983
aV54ff1809d285c
p3984
aV54ff1809d3013
p3985
aV54ff1809d323a
p3986
aV54ff1809d3506
p3987
aV54ff18088c986
p3988
aV54ff18088ca31
p3989
aV54ff18077a24f
p3990
aV54ff17fd747f3
p3991
aV54ff17fd74b84
p3992
aV54ff17fdadfc6
p3993
aV54ff17fd761ae
p3994
aV54ff17fd7697d
p3995
aV54ff17fde8047
p3996
aV54ff17fde8179
p3997
aV54ff1803c5e62
p3998
aV54ff1803ee357
p3999
aV54ff1803ee5cc
p4000
aV54ff1805b1bd4
p4001
aV54ff180727997
p4002
aV54ff180465dfb
p4003
aV54ff180465fc6
p4004
aV54ff17ffd610c
p4005
aV54ff18011da97
p4006
aV54ff1809d3640
p4007
aV54ff180b1f646
p4008
aV54ff180bc3ea0
p4009
aV54ff180843702
p4010
aV54ff180843928
p4011
aV54ff1808439f2
p4012
aV54ff180a572a9
p4013
aV54ff180654f22
p4014
aV54ff18077a617
p4015
aV54ff180a5793f
p4016
aV54ff1808b05d0
p4017
aV54ff17fde8a34
p4018
aV54ff17feafddf
p4019
aV54ff17feded78
p4020
aV54ff17fedee7f
p4021
aV54ff17fdaf2d7
p4022
aV54ff17fdaf652
p4023
aV54ff17fdaf772
p4024
aV54ff17fdaf82e
p4025
aV54ff17fdafa2a
p4026
aV54ff1805b1e46
p4027
aV54ff1805b2041
p4028
aV54ff1806190d4
p4029
aV54ff180727e4c
p4030
aV54ff180752127
p4031
aV54ff1802a61b2
p4032
aV54ff1802a62a6
p4033
aV54ff17ffd69f2
p4034
aV54ff180013e5f
p4035
aV54ff1802a65d5
p4036
aV54ff180843b9e
p4037
aV54ff1809d38b9
p4038
aV54ff1809d3a05
p4039
aV54ff1809d3bff
p4040
aV54ff1809d3d3a
p4041
aV54ff1808646c9
p4042
aV54ff180864905
p4043
aV54ff180a57bd8
p4044
aV54ff180a85303
p4045
aV54ff180a8541c
p4046
aV54ff180a854bf
p4047
aV54ff18067ac27
p4048
aV54ff18067acd7
p4049
aV54ff18067ae55
p4050
aV54ff1808b0ae1
p4051
aV54ff17fead44f
p4052
aV54ff17fdafcf0
p4053
aV54ff17fdafe9d
p4054
aV54ff17feada1e
p4055
aV54ff17fe27460
p4056
aV54ff17fe27cc7
p4057
aV54ff17fe27e64
p4058
aV54ff17fde6318
p4059
aV54ff1807521e4
p4060
aV54ff18075254b
p4061
aV54ff1803efbee
p4062
aV54ff1803efe3c
p4063
aV54ff1803f00bf
p4064
aV54ff1805b35c8
p4065
aV54ff1802a6683
p4066
aV54ff1802cfe9f
p4067
aV54ff18048d7af
p4068
aV54ff18048dad2
p4069
aV54ff18001429a
p4070
aV54ff18011ebbe
p4071
aV54ff180dd206c
p4072
aV54ff180dd23c4
p4073
aV54ff180c75aec
p4074
aV54ff1808b0d8f
p4075
aV54ff18067b512
p4076
aV54ff18067b6bc
p4077
aV54ff1808b17c3
p4078
aV54ff17feae290
p4079
aV54ff17fde7c76
p4080
aV54ff17fe26f67
p4081
aV54ff180016635
p4082
aV54ff18061a1bc
p4083
aV54ff18075381b
p4084
aV54ff180176087
p4085
aV54ff180cadb43
p4086
aV54ff180cadd8e
p4087
aV54ff180cae45d
p4088
aV54ff180caea6f
p4089
aV54ff180e11345
p4090
aV54ff180e11679
p4091
aV54ff180caf7be
p4092
aV54ff1808b1dff
p4093
aV54ff1808b1ec9
p4094
aV54ff1808b1f8a
p4095
aV54ff18067bdee
p4096
aV54ff18003c2a1
p4097
aV54ff18014ccef
p4098
aV54ff18014cdc1
p4099
aV54ff180174f71
p4100
aV54ff180300615
p4101
aV54ff1806ef717
p4102
aV54ff1803332d6
p4103
aV54ff180177beb
p4104
aV54ff180caf929
p4105
aV54ff180cafa4e
p4106
aV54ff180cafc45
p4107
aV54ff180cafd77
p4108
aV54ff180e11dbc
p4109
aV54ff180cb01c6
p4110
aV54ff180e120ee
p4111
aV54ff180e12393
p4112
aV54ff180e32168
p4113
aV54ff18067bf66
p4114
aV54ff18067c010
p4115
aV54ff18067c262
p4116
aV54ff18067c5dd
p4117
aV54ff1808debea
p4118
aV54ff1803007d3
p4119
aV54ff18003c53d
p4120
aV54ff18017566a
p4121
aV54ff18097843d
p4122
aV54ff18072574f
p4123
aV54ff1809788b5
p4124
aV54ff180978d8b
p4125
aV54ff180ce52e8
p4126
aV54ff18067c7c2
p4127
aV54ff18067c868
p4128
aV54ff1803017f0
p4129
aV54ff18003d0f2
p4130
aV54ff18003d29f
p4131
aV54ff180175a12
p4132
aV54ff18017620c
p4133
aV54ff180301eac
p4134
aV54ff180979151
p4135
aV54ff180725b80
p4136
aV54ff1807db686
p4137
aV54ff1807db8a5
p4138
aV54ff180979221
p4139
aV54ff180979531
p4140
aV54ff1801a2d97
p4141
aV54ff1801a3182
p4142
aV54ff180063e7e
p4143
aV54ff180063fa3
p4144
aV54ff180e342ea
p4145
aV54ff180e343b4
p4146
aV54ff1804bffc7
p4147
aV54ff180176b23
p4148
aV54ff180176dc8
p4149
aV54ff1804c06ad
p4150
aV54ff18097983a
p4151
aV54ff1807267fd
p4152
aV54ff1807dbc67
p4153
aV54ff18050642a
p4154
aV54ff1805066c9
p4155
aV54ff180506b44
p4156
aV54ff180d15b9d
p4157
aV54ff180d15d37
p4158
aV54ff180752dff
p4159
aV54ff1808e06a7
p4160
aV54ff180177634
p4161
aV54ff1801778c7
p4162
aV54ff180177e67
p4163
aV54ff1807dbd9f
p4164
aV54ff1807dc367
p4165
aV54ff180979ea6
p4166
aV54ff180726fd5
p4167
aV54ff180727271
p4168
aV54ff1807dcdad
p4169
aV54ff1807dd930
p4170
aV54ff1807ddacc
p4171
aV54ff180362c00
p4172
aV54ff180362e9b
p4173
aV54ff18052a142
p4174
aV54ff18052a1e0
p4175
aV54ff180753196
p4176
aV54ff180866c89
p4177
aV54ff180753261
p4178
aV54ff180753336
p4179
aV54ff180753742
p4180
aV54ff1807539aa
p4181
aV54ff180a32bd1
p4182
aV54ff180a32cea
p4183
aV54ff1806a8ee6
p4184
aV54ff1806a92ab
p4185
aV54ff180918eeb
p4186
aV54ff1801a2d14
p4187
aV54ff1801a30ac
p4188
aV54ff1807ddc9a
p4189
aV54ff1807ddd83
p4190
aV54ff1807ddf5f
p4191
aV54ff1807de039
p4192
aV54ff18097a90f
p4193
aV54ff18097ab2f
p4194
aV54ff1809a0975
p4195
aV54ff180ac94c3
p4196
aV54ff1807de61c
p4197
aV54ff18088ab85
p4198
aV54ff18088ae38
p4199
aV54ff18088afa6
p4200
aV54ff18065315c
p4201
aV54ff1807546d0
p4202
aV54ff180778cb1
p4203
aV54ff180919a8a
p4204
aV54ff1801a350e
p4205
aV54ff1801a2e85
p4206
aV54ff180505627
p4207
aV54ff1801c978f
p4208
aV54ff1801c9bed
p4209
aV54ff18052b3c6
p4210
aV54ff18052b587
p4211
aV54ff180778e89
p4212
aV54ff180a5632f
p4213
aV54ff180778f8b
p4214
aV54ff18077948e
p4215
aV54ff18077995d
p4216
aV54ff18088bf13
p4217
aV54ff18088c151
p4218
aV54ff1806ef215
p4219
aV54ff1806ef44e
p4220
aV54ff180506787
p4221
aV54ff1805b3916
p4222
aV54ff18033434e
p4223
aV54ff1801ca203
p4224
aV54ff18054259e
p4225
aV54ff1808aed9b
p4226
aV54ff180a570a3
p4227
aV54ff180654b03
p4228
aV54ff18094facd
p4229
aV54ff180953b33
p4230
aV54ff1806ef55c
p4231
aV54ff180543594
p4232
aV54ff1805436ab
p4233
aV54ff180362a2c
p4234
aV54ff180363520
p4235
aV54ff180529fc3
p4236
aV54ff180363607
p4237
aV54ff1805426b1
p4238
aV54ff180542a11
p4239
aV54ff180542c4f
p4240
aV54ff180542eef
p4241
aV54ff1801e8c71
p4242
aV54ff1805437cd
p4243
aV54ff1808af123
p4244
aV54ff180a576ce
p4245
aV54ff180a5785e
p4246
aV54ff180a579d8
p4247
aV54ff1806efc3e
p4248
aV54ff1807254fa
p4249
aV54ff1807259fa
p4250
aV54ff180725dde
p4251
aV54ff1807ccfd9
p4252
aV54ff18054418c
p4253
aV54ff18054429a
p4254
aV54ff180544458
p4255
aV54ff180544662
p4256
aV54ff180544ac5
p4257
aV54ff18036467a
p4258
aV54ff18052aeae
p4259
aV54ff18052af3d
p4260
aV54ff1805438e7
p4261
aV54ff180543a21
p4262
aV54ff180543ea4
p4263
aV54ff18039a064
p4264
aV54ff180544020
p4265
aV54ff180a57b3c
p4266
aV54ff180a85633
p4267
aV54ff18067aab5
p4268
aV54ff1807db785
p4269
aV54ff1807dba18
p4270
aV54ff1807dc1c3
p4271
aV54ff1807dc57f
p4272
aV54ff180979f69
p4273
aV54ff18039aac1
p4274
aV54ff180544cf8
p4275
aV54ff180544e38
p4276
aV54ff1801ea44f
p4277
aV54ff18052b1a9
p4278
aV54ff18091a8e0
p4279
aV54ff1806ce92b
p4280
aV54ff18039a44a
p4281
aV54ff18039a6a1
p4282
aV54ff180544be7
p4283
aV54ff1801ea84b
p4284
aV54ff1808b166c
p4285
aV54ff1808b1d2a
p4286
aV54ff18067b826
p4287
aV54ff18067b91b
p4288
aV54ff180726c4f
p4289
aV54ff1807dd046
p4290
aV54ff1807dd298
p4291
aV54ff1807dd46a
p4292
aV54ff1807dd67e
p4293
aV54ff1807ddbb3
p4294
aV54ff1803c3ad8
p4295
aV54ff1803c3e4c
p4296
aV54ff180545956
p4297
aV54ff180545a4f
p4298
aV54ff1801eafe7
p4299
aV54ff1801eb0b0
p4300
aV54ff18091b6b0
p4301
aV54ff18091bd70
p4302
aV54ff1806cf5ec
p4303
aV54ff18039ae2a
p4304
aV54ff1803c3c53
p4305
aV54ff18057a851
p4306
aV54ff1801eb1a6
p4307
aV54ff1803c4118
p4308
aV54ff1803c43e4
p4309
aV54ff18057b664
p4310
aV54ff18067bb28
p4311
aV54ff18067bbe0
p4312
aV54ff18067bea0
p4313
aV54ff1808b219b
p4314
aV54ff1808ddedc
p4315
aV54ff1807dde87
p4316
aV54ff1807de556
p4317
aV54ff1809a0883
p4318
aV54ff180ac8d22
p4319
aV54ff180b7724f
p4320
aV54ff180b772d5
p4321
aV54ff1803c42bb
p4322
aV54ff18057b0c6
p4323
aV54ff18057b794
p4324
aV54ff1803c45a1
p4325
aV54ff1803c4940
p4326
aV54ff1803c4c4d
p4327
aV54ff18057be0d
p4328
aV54ff18091c0d1
p4329
aV54ff18094d7c6
p4330
aV54ff1806ede31
p4331
aV54ff18094db8e
p4332
aV54ff1802454f5
p4333
aV54ff1800bc00c
p4334
aV54ff1800bc1dc
p4335
aV54ff180245a5d
p4336
aV54ff17ff71454
p4337
aV54ff18067c0d1
p4338
aV54ff1808de8cd
p4339
aV54ff1806a6e4c
p4340
aV54ff1806a6fa2
p4341
aV54ff180b77491
p4342
aV54ff180b77509
p4343
aV54ff1807de77d
p4344
aV54ff1807de900
p4345
aV54ff1807de9f8
p4346
aV54ff180b99bf1
p4347
aV54ff180818953
p4348
aV54ff1809a09fc
p4349
aV54ff1809a0c36
p4350
aV54ff1809a0d6e
p4351
aV54ff18057cb57
p4352
aV54ff18021ba65
p4353
aV54ff18021bb6c
p4354
aV54ff18021bf4c
p4355
aV54ff18021c1fc
p4356
aV54ff18057cc5e
p4357
aV54ff18021c5d1
p4358
aV54ff1806ee2e8
p4359
aV54ff18094e492
p4360
aV54ff18094e6ce
p4361
aV54ff1800bca12
p4362
aV54ff1802461e3
p4363
aV54ff1808dedb9
p4364
aV54ff1808df5f3
p4365
aV54ff1806a718b
p4366
aV54ff1808df714
p4367
aV54ff1808df839
p4368
aV54ff1809a0e88
p4369
aV54ff180ac95d8
p4370
aV54ff180b99d8c
p4371
aV54ff180b99f5d
p4372
aV54ff1808197c6
p4373
aV54ff180aca00a
p4374
aV54ff1809a14ed
p4375
aV54ff180b9a786
p4376
aV54ff180b9ab34
p4377
aV54ff180819fa9
p4378
aV54ff1805f0e93
p4379
aV54ff1803c5b75
p4380
aV54ff18057d7d1
p4381
aV54ff1806eedbd
p4382
aV54ff18094ef42
p4383
aV54ff18094f4ee
p4384
aV54ff1800bcfb5
p4385
aV54ff180246614
p4386
aV54ff1802466c9
p4387
aV54ff1808df973
p4388
aV54ff1808e02e0
p4389
aV54ff1808e05bd
p4390
aV54ff1808e09ce
p4391
aV54ff1806cd906
p4392
aV54ff1806cdbe8
p4393
aV54ff1806cdf25
p4394
aV54ff1806ce865
p4395
aV54ff1800e52bb
p4396
aV54ff1800e5724
p4397
aV54ff18026c413
p4398
aV54ff18026c9d0
p4399
aV54ff180440d6f
p4400
aV54ff1806ef18b
p4401
aV54ff18081873a
p4402
aV54ff180b77963
p4403
aV54ff180b99912
p4404
aV54ff180818ce3
p4405
aV54ff180818e61
p4406
aV54ff180b9a068
p4407
aV54ff180819218
p4408
aV54ff180246a74
p4409
aV54ff180246cc9
p4410
aV54ff1800be25f
p4411
aV54ff18024705a
p4412
aV54ff1806a8fe1
p4413
aV54ff18091922f
p4414
aV54ff1806cfae7
p4415
aV54ff1806cfcc0
p4416
aV54ff18091ab3b
p4417
aV54ff18091ac79
p4418
aV54ff1806cea0a
p4419
aV54ff1806cebe1
p4420
aV54ff1806cedc4
p4421
aV54ff1806cf08a
p4422
aV54ff180440fa2
p4423
aV54ff1804413af
p4424
aV54ff1800e5c16
p4425
aV54ff1800e5f83
p4426
aV54ff1800e6b6e
p4427
aV54ff1800e6fc7
p4428
aV54ff18026d56d
p4429
aV54ff1808195ba
p4430
aV54ff1808196d4
p4431
aV54ff1809a1240
p4432
aV54ff1809a12cf
p4433
aV54ff180b9aca5
p4434
aV54ff180819e7c
p4435
aV54ff180af1675
p4436
aV54ff18026b51e
p4437
aV54ff18026b7dd
p4438
aV54ff18094e1a1
p4439
aV54ff1806ee881
p4440
aV54ff1806ee932
p4441
aV54ff1806cf15a
p4442
aV54ff1806cf902
p4443
aV54ff18091bf4f
p4444
aV54ff18026d8e4
p4445
aV54ff1802a2759
p4446
aV54ff17ffd4324
p4447
aV54ff17ffd4cc5
p4448
aV54ff180442b01
p4449
aV54ff180464b05
p4450
aV54ff1809a1985
p4451
aV54ff18081a775
p4452
aV54ff18081a9be
p4453
aV54ff18081aaac
p4454
aV54ff180af224e
p4455
aV54ff1800e50fe
p4456
aV54ff18048e494
p4457
aV54ff18048f50b
p4458
aV54ff18014b986
p4459
aV54ff18094e5c9
p4460
aV54ff18094e8b0
p4461
aV54ff18094ed85
p4462
aV54ff18094d8dd
p4463
aV54ff18094d9b9
p4464
aV54ff1806edf54
p4465
aV54ff1806ee205
p4466
aV54ff18094dabf
p4467
aV54ff1809a1c68
p4468
aV54ff1809a200e
p4469
aV54ff180841999
p4470
aV54ff180841ab1
p4471
aV54ff18014bacd
p4472
aV54ff1802d5c8d
p4473
aV54ff18048f752
p4474
aV54ff18048fd45
p4475
aV54ff1806ef2ab
p4476
aV54ff1806ef341
p4477
aV54ff18094f7d1
p4478
aV54ff18094f8e9
p4479
aV54ff1806efa6c
p4480
aV54ff18081a280
p4481
aV54ff180af1c77
p4482
aV54ff1809a16ea
p4483
aV54ff1809a1b33
p4484
aV54ff1809a1bc9
p4485
aV54ff180b9aeb1
p4486
aV54ff180b9b30a
p4487
aV54ff180465945
p4488
aV54ff17ffd670b
p4489
aV54ff180af2bd2
p4490
aV54ff180bc22bb
p4491
aV54ff180bc2407
p4492
aV54ff1809a23c3
p4493
aV54ff1809a2457
p4494
aV54ff1809d0bc1
p4495
aV54ff180842163
p4496
aV54ff18014c629
p4497
aV54ff1803004cb
p4498
aV54ff18003c332
p4499
aV54ff1809786bb
p4500
aV54ff1806efafd
p4501
aV54ff1809a1dbf
p4502
aV54ff1809a1eec
p4503
aV54ff1809a20da
p4504
aV54ff1809a2214
p4505
aV54ff18011d983
p4506
aV54ff1803347e4
p4507
aV54ff180af33d8
p4508
aV54ff180bc2957
p4509
aV54ff180bc2cd3
p4510
aV54ff1809d1639
p4511
aV54ff1809d18e6
p4512
aV54ff180842d38
p4513
aV54ff180bc3734
p4514
aV54ff180300bd3
p4515
aV54ff1803010b2
p4516
aV54ff18003c5ea
p4517
aV54ff18003c731
p4518
aV54ff180978c7a
p4519
aV54ff180725c33
p4520
aV54ff180726383
p4521
aV54ff1807dbed3
p4522
aV54ff180979d11
p4523
aV54ff180b9b4b5
p4524
aV54ff18081acf1
p4525
aV54ff180bc2714
p4526
aV54ff1809a22ab
p4527
aV54ff1809a2334
p4528
aV54ff180506bde
p4529
aV54ff180529c3e
p4530
aV54ff180529e5a
p4531
aV54ff1801a4b9f
p4532
aV54ff180362d7e
p4533
aV54ff180bc37fc
p4534
aV54ff180bc3c7c
p4535
aV54ff1809d266e
p4536
aV54ff1809d2752
p4537
aV54ff1809d2978
p4538
aV54ff1809d2b12
p4539
aV54ff180843027
p4540
aV54ff180b1ef93
p4541
aV54ff180301aaa
p4542
aV54ff1804bf096
p4543
aV54ff1804bf255
p4544
aV54ff18003cf26
p4545
aV54ff180175f0d
p4546
aV54ff180726eee
p4547
aV54ff1807271ac
p4548
aV54ff1807dc6cd
p4549
aV54ff1807dc8cf
p4550
aV54ff1807dcc8c
p4551
aV54ff1807dd110
p4552
aV54ff18097a139
p4553
aV54ff18097a3c2
p4554
aV54ff1809d41a8
p4555
aV54ff1809a24f7
p4556
aV54ff1809d0f36
p4557
aV54ff180841f0f
p4558
aV54ff180842229
p4559
aV54ff1808423e7
p4560
aV54ff1808424e3
p4561
aV54ff180bc2bb5
p4562
aV54ff18036303c
p4563
aV54ff18052a0d0
p4564
aV54ff1809d3f5d
p4565
aV54ff180843d0b
p4566
aV54ff180843dc7
p4567
aV54ff18008e96b
p4568
aV54ff18008ebe5
p4569
aV54ff18008edce
p4570
aV54ff17ff4c34a
p4571
aV54ff18008f2eb
p4572
aV54ff18008f3d4
p4573
aV54ff18021d773
p4574
aV54ff180a0ac90
p4575
aV54ff180864c6f
p4576
aV54ff180864e2e
p4577
aV54ff18086505a
p4578
aV54ff18086520c
p4579
aV54ff180b206f8
p4580
aV54ff180b20845
p4581
aV54ff180bc2ef6
p4582
aV54ff180bc304c
p4583
aV54ff180bc3147
p4584
aV54ff1809d1a2d
p4585
aV54ff1809d1ff6
p4586
aV54ff180842724
p4587
aV54ff180842820
p4588
aV54ff1808428e2
p4589
aV54ff180842a38
p4590
aV54ff180842e01
p4591
aV54ff18052aac7
p4592
aV54ff1801c8e0a
p4593
aV54ff180b1fe9b
p4594
aV54ff180b1ffb8
p4595
aV54ff1809d43eb
p4596
aV54ff1809d44a8
p4597
aV54ff1808652fd
p4598
aV54ff18021d898
p4599
aV54ff18021deb5
p4600
aV54ff17ff70a63
p4601
aV54ff1803f0411
p4602
aV54ff18008f92b
p4603
aV54ff1800bbc23
p4604
aV54ff18021e2b2
p4605
aV54ff180245370
p4606
aV54ff180a0b07e
p4607
aV54ff180a0b1a8
p4608
aV54ff180a0b4cb
p4609
aV54ff180a0b83e
p4610
aV54ff180c0ca05
p4611
aV54ff180c0cd27
p4612
aV54ff180c0cdf6
p4613
aV54ff180865eee
p4614
aV54ff180af36c1
p4615
aV54ff180bc3623
p4616
aV54ff180bc3d74
p4617
aV54ff1809d2242
p4618
aV54ff1809d2329
p4619
aV54ff1809d2418
p4620
aV54ff1809d2557
p4621
aV54ff18036489f
p4622
aV54ff1803649d6
p4623
aV54ff18052b0a2
p4624
aV54ff18036520e
p4625
aV54ff180b202a1
p4626
aV54ff180b2054a
p4627
aV54ff180b2096d
p4628
aV54ff180a0b3bf
p4629
aV54ff180a0b97a
p4630
aV54ff1808653da
p4631
aV54ff180865843
p4632
aV54ff180c0c7f8
p4633
aV54ff180c0d094
p4634
aV54ff18008d087
p4635
aV54ff18008d467
p4636
aV54ff17fe5c59e
p4637
aV54ff17ff4a8f8
p4638
aV54ff180866386
p4639
aV54ff180a0bc79
p4640
aV54ff180a0c083
p4641
aV54ff180a0c2d8
p4642
aV54ff180a0c4ce
p4643
aV54ff180b220e1
p4644
aV54ff180b4f693
p4645
aV54ff1808430ce
p4646
aV54ff18084322d
p4647
aV54ff18084385f
p4648
aV54ff180843ad9
p4649
aV54ff1809d3788
p4650
aV54ff1809d3ad3
p4651
aV54ff1809d4003
p4652
aV54ff1809d40cb
p4653
aV54ff1803652f1
p4654
aV54ff18052b48f
p4655
aV54ff18052b6ec
p4656
aV54ff18052b8f5
p4657
aV54ff1801ca36f
p4658
aV54ff180398b6f
p4659
aV54ff180866182
p4660
aV54ff180866543
p4661
aV54ff180b21516
p4662
aV54ff180b2188e
p4663
aV54ff180b21965
p4664
aV54ff180b21a77
p4665
aV54ff180a0c37c
p4666
aV54ff180a0c655
p4667
aV54ff18008da2f
p4668
aV54ff180dd26b6
p4669
aV54ff180d665f0
p4670
aV54ff180a0cdf2
p4671
aV54ff180a0cf87
p4672
aV54ff180a30ebf
p4673
aV54ff1806a93c4
p4674
aV54ff1806cd59a
p4675
aV54ff180864b83
p4676
aV54ff180b2041a
p4677
aV54ff180b20e0c
p4678
aV54ff180b20f33
p4679
aV54ff180a0b2c2
p4680
aV54ff18086564a
p4681
aV54ff180c0d19d
p4682
aV54ff1808662b0
p4683
aV54ff18052b991
p4684
aV54ff180542313
p4685
aV54ff1801cab42
p4686
aV54ff180a0c82c
p4687
aV54ff180a0caa1
p4688
aV54ff180b4f59f
p4689
aV54ff180c0de30
p4690
aV54ff180d66282
p4691
aV54ff180a0cc29
p4692
aV54ff180a0cd0c
p4693
aV54ff180c75da7
p4694
aV54ff180c7a946
p4695
aV54ff180dd28d2
p4696
aV54ff180cada05
p4697
aV54ff180cadc7c
p4698
aV54ff180e1032a
p4699
aV54ff1806cd669
p4700
aV54ff1806cd772
p4701
aV54ff1809195d2
p4702
aV54ff1806ce00a
p4703
aV54ff18086672f
p4704
aV54ff180a0bd5b
p4705
aV54ff180a0bfc4
p4706
aV54ff180a0c11f
p4707
aV54ff180b210ed
p4708
aV54ff180b21239
p4709
aV54ff180b21347
p4710
aV54ff180c0d368
p4711
aV54ff180c0d6ad
p4712
aV54ff1803992f5
p4713
aV54ff180542926
p4714
aV54ff18054302b
p4715
aV54ff17ffd690d
p4716
aV54ff18011e36c
p4717
aV54ff18011e53d
p4718
aV54ff18011e607
p4719
aV54ff180a0d386
p4720
aV54ff180b4fba4
p4721
aV54ff180b5027a
p4722
aV54ff180d66888
p4723
aV54ff180c41a6b
p4724
aV54ff180a3155c
p4725
aV54ff180cae7db
p4726
aV54ff180caebe0
p4727
aV54ff180caed0c
p4728
aV54ff180e11909
p4729
aV54ff1806ce799
p4730
aV54ff18091a9fb
p4731
aV54ff18091adf3
p4732
aV54ff1806cecd4
p4733
aV54ff180c0d94b
p4734
aV54ff180a0c8fd
p4735
aV54ff180b21ee5
p4736
aV54ff180b4f8e2
p4737
aV54ff18048d526
p4738
aV54ff18048d5fb
p4739
aV54ff18001457c
p4740
aV54ff18014ae66
p4741
aV54ff18014af4e
p4742
aV54ff1802d091a
p4743
aV54ff180a3192f
p4744
aV54ff180b509e3
p4745
aV54ff180b50afb
p4746
aV54ff180da4db7
p4747
aV54ff180a319e1
p4748
aV54ff180a31b94
p4749
aV54ff180a31f74
p4750
aV54ff180a3212a
p4751
aV54ff180caf689
p4752
aV54ff180cafed9
p4753
aV54ff180caffe7
p4754
aV54ff180e119e0
p4755
aV54ff180e11aa7
p4756
aV54ff180e11f35
p4757
aV54ff180e11fba
p4758
aV54ff180cb02f4
p4759
aV54ff180cb043a
p4760
aV54ff18091b44e
p4761
aV54ff18091baf3
p4762
aV54ff1806cf235
p4763
aV54ff1806cf305
p4764
aV54ff180d6643c
p4765
aV54ff180a0cb4f
p4766
aV54ff180a0cec1
p4767
aV54ff180a30d02
p4768
aV54ff180a30db7
p4769
aV54ff180b4fa0d
p4770
aV54ff180b4faee
p4771
aV54ff180b4fc8b
p4772
aV54ff18048f2cd
p4773
aV54ff180b51a2a
p4774
aV54ff180b51d34
p4775
aV54ff180b51e09
p4776
aV54ff180a32307
p4777
aV54ff180a326e6
p4778
aV54ff180da673a
p4779
aV54ff180cb0e64
p4780
aV54ff180e32d8a
p4781
aV54ff180e33597
p4782
aV54ff180e336da
p4783
aV54ff180e33826
p4784
aV54ff1806cf759
p4785
aV54ff18094d547
p4786
aV54ff18097a85b
p4787
aV54ff1807de21a
p4788
aV54ff18097ac10
p4789
aV54ff1809a0904
p4790
aV54ff180b4fd86
p4791
aV54ff180b5004e
p4792
aV54ff180d669b5
p4793
aV54ff180da46a1
p4794
aV54ff180a31332
p4795
aV54ff180b508b8
p4796
aV54ff1800159cc
p4797
aV54ff18014bcae
p4798
aV54ff1802d21d4
p4799
aV54ff18048f84a
p4800
aV54ff18048f9d1
p4801
aV54ff180c43694
p4802
aV54ff180b75e0f
p4803
aV54ff180b75f98
p4804
aV54ff180b7603b
p4805
aV54ff180da6c2c
p4806
aV54ff180da6d27
p4807
aV54ff180c44262
p4808
aV54ff180b762a9
p4809
aV54ff180e3420f
p4810
aV54ff180b77625
p4811
aV54ff180b776aa
p4812
aV54ff180b7783a
p4813
aV54ff180b997f9
p4814
aV54ff180818a2c
p4815
aV54ff180818f14
p4816
aV54ff1809a0afd
p4817
aV54ff180da51b1
p4818
aV54ff180c41e5f
p4819
aV54ff180c423d1
p4820
aV54ff180a31c73
p4821
aV54ff180b50e1b
p4822
aV54ff180b514a0
p4823
aV54ff180b5164d
p4824
aV54ff18014c273
p4825
aV54ff1802f3d1f
p4826
aV54ff180b764e9
p4827
aV54ff180dd05df
p4828
aV54ff180dd077c
p4829
aV54ff180c7318a
p4830
aV54ff180b767b6
p4831
aV54ff180dd0c13
p4832
aV54ff180e5bb15
p4833
aV54ff180d165c5
p4834
aV54ff180e5c31c
p4835
aV54ff180e5cab0
p4836
aV54ff180d1707b
p4837
aV54ff180ac9966
p4838
aV54ff180b9a23d
p4839
aV54ff180b9a44c
p4840
aV54ff1809a1109
p4841
aV54ff180d1688c
p4842
aV54ff180e5c1c8
p4843
aV54ff180e5c96c
p4844
aV54ff180b517df
p4845
aV54ff180a321c9
p4846
aV54ff180a3242a
p4847
aV54ff180a3251e
p4848
aV54ff180a3262c
p4849
aV54ff180da5e1b
p4850
aV54ff17ff70c37
p4851
aV54ff1803f0926
p4852
aV54ff18008f846
p4853
aV54ff180245208
p4854
aV54ff180c73ab6
p4855
aV54ff180b76c81
p4856
aV54ff180b76d1e
p4857
aV54ff180b76e57
p4858
aV54ff180dd15fc
p4859
aV54ff180c73ff9
p4860
aV54ff180d17366
p4861
aV54ff180e5cbdb
p4862
aV54ff180e5d0b9
p4863
aV54ff180d17baa
p4864
aV54ff180d178dd
p4865
aV54ff180d17e3f
p4866
aV54ff180e5d5ea
p4867
aV54ff180d17fb4
p4868
aV54ff180da5ef6
p4869
aV54ff180da614d
p4870
aV54ff180c432cc
p4871
aV54ff180c4352c
p4872
aV54ff180c4380b
p4873
aV54ff180c43999
p4874
aV54ff180c43b07
p4875
aV54ff180b521f0
p4876
aV54ff180da6f7c
p4877
aV54ff180245431
p4878
aV54ff180421928
p4879
aV54ff1800bc52e
p4880
aV54ff180c74808
p4881
aV54ff180c7510a
p4882
aV54ff180c75983
p4883
aV54ff180dd261a
p4884
aV54ff180cadea8
p4885
aV54ff180cae32d
p4886
aV54ff180d3e4ff
p4887
aV54ff180d3e5a5
p4888
aV54ff180d3e646
p4889
aV54ff180d3e949
p4890
aV54ff180d3eb8e
p4891
aV54ff180d3f16d
p4892
aV54ff180d3f9ac
p4893
aV54ff180e84be7
p4894
aV54ff180d40258
p4895
aV54ff180d63236
p4896
aV54ff180c447d1
p4897
aV54ff180b765ff
p4898
aV54ff180da75db
p4899
aV54ff180da779c
p4900
aV54ff180c44ae5
p4901
aV54ff180c44ca4
p4902
aV54ff180c72ef7
p4903
aV54ff1800bc81f
p4904
aV54ff1800bcbd3
p4905
aV54ff1800bccae
p4906
aV54ff1800bcd68
p4907
aV54ff180e10dd4
p4908
aV54ff180caee41
p4909
aV54ff180caf1d3
p4910
aV54ff180e11760
p4911
aV54ff180caf58a
p4912
aV54ff180e11ce8
p4913
aV54ff180cb0834
p4914
aV54ff180e12232
p4915
aV54ff180d3f0d4
p4916
aV54ff180d3f219
p4917
aV54ff180d3f358
p4918
aV54ff180e83ed1
p4919
aV54ff180d3fa3b
p4920
aV54ff180eb07a2
p4921
aV54ff180eb093d
p4922
aV54ff180c733c4
p4923
aV54ff180b76703
p4924
aV54ff180b76847
p4925
aV54ff180b76aa8
p4926
aV54ff180b76bfa
p4927
aV54ff180c734e9
p4928
aV54ff180c737bc
p4929
aV54ff180dd16d0
p4930
aV54ff180c74230
p4931
aV54ff17ff71a2c
p4932
aV54ff1804224b7
p4933
aV54ff1802462b6
p4934
aV54ff180246352
p4935
aV54ff180e122d0
p4936
aV54ff180e31ff1
p4937
aV54ff180ce4319
p4938
aV54ff180e331ce
p4939
aV54ff180e850a8
p4940
aV54ff180d3fc49
p4941
aV54ff180d3fd64
p4942
aV54ff180d402f2
p4943
aV54ff180eb1ce7
p4944
aV54ff180edaa6e
p4945
aV54ff180edab3e
p4946
aV54ff180edadcc
p4947
aV54ff180edbbb5
p4948
aV54ff180edbdab
p4949
aV54ff180edbe96
p4950
aV54ff180c746c0
p4951
aV54ff180c74925
p4952
aV54ff180dd1e3f
p4953
aV54ff180dd1eef
p4954
aV54ff180c74e0b
p4955
aV54ff180c7523e
p4956
aV54ff180c7572c
p4957
aV54ff180c75c37
p4958
aV54ff180dd2767
p4959
aV54ff180246410
p4960
aV54ff180246573
p4961
aV54ff1804227e6
p4962
aV54ff1800bd9a9
p4963
aV54ff180e33dfb
p4964
aV54ff180e3413b
p4965
aV54ff180e348fa
p4966
aV54ff180e86318
p4967
aV54ff180d636d4
p4968
aV54ff180d640cf
p4969
aV54ff180eaffc7
p4970
aV54ff180eb03d5
p4971
aV54ff180d64526
p4972
aV54ff180edc642
p4973
aV54ff180dd2820
p4974
aV54ff180cad6e1
p4975
aV54ff180cad85d
p4976
aV54ff180cadfb8
p4977
aV54ff180cae204
p4978
aV54ff180422b08
p4979
aV54ff180422d36
p4980
aV54ff1800bde81
p4981
aV54ff18026bad2
p4982
aV54ff18026c026
p4983
aV54ff180ce5f20
p4984
aV54ff180eb1518
p4985
aV54ff180eb1866
p4986
aV54ff180eb20f7
p4987
aV54ff180eb2441
p4988
aV54ff180eda15f
p4989
aV54ff180cae595
p4990
aV54ff180e1105e
p4991
aV54ff180cae918
p4992
aV54ff180caef68
p4993
aV54ff180caf322
p4994
aV54ff180cb00c4
p4995
aV54ff180e11b72
p4996
aV54ff180cb05fb
p4997
aV54ff17ffa3d5f
p4998
aV54ff18008d559
p4999
aV54ff18008d75c
p5000
aV54ff18008d83e
p5001
aV54ff17ff4ab31
p5002
aV54ff17ff4ac49
p5003
aV54ff180e5ae4d
p5004
aV54ff180d15ecc
p5005
aV54ff180eda2fe
p5006
aV54ff180eda6f7
p5007
aV54ff180eda945
p5008
aV54ff180edafc9
p5009
aV54ff180edb234
p5010
aV54ff180edb532
p5011
aV54ff180e12190
p5012
aV54ff180e330a0
p5013
aV54ff180ce406e
p5014
aV54ff18008e259
p5015
aV54ff17ff4b3b6
p5016
aV54ff17fe8bf82
p5017
aV54ff18008e881
p5018
aV54ff180e5bd37
p5019
aV54ff180e5be69
p5020
aV54ff180d16775
p5021
aV54ff180d16a39
p5022
aV54ff180d16b73
p5023
aV54ff180e5c468
p5024
aV54ff180e5cd66
p5025
aV54ff180e5cfd0
p5026
aV54ff180f0f2d8
p5027
aV54ff180e33aa9
p5028
aV54ff180ce51c7
p5029
aV54ff180e33ec7
p5030
aV54ff18008ece9
p5031
aV54ff18008f5df
p5032
aV54ff18021daeb
p5033
aV54ff18021dfba
p5034
aV54ff180e32f1f
p5035
aV54ff180e33424
p5036
aV54ff180d17ae7
p5037
aV54ff180d3e440
p5038
aV54ff180d3e70b
p5039
aV54ff180e836fa
p5040
aV54ff180e838b3
p5041
aV54ff180e350c0
p5042
aV54ff180e5aca2
p5043
aV54ff180e33bc8
p5044
aV54ff180ce4a54
p5045
aV54ff180ce4bbb
p5046
aV54ff180ce4d33
p5047
aV54ff180ce50a1
p5048
aV54ff180e34054
p5049
aV54ff180d3f2ac
p5050
aV54ff180d3f4ae
p5051
aV54ff180e840d2
p5052
aV54ff180d3f5d0
p5053
aV54ff180d3f7e9
p5054
aV54ff180d3f878
p5055
aV54ff180d3fb87
p5056
aV54ff180d3fe11
p5057
aV54ff180d161cf
p5058
aV54ff180e5bc1f
p5059
aV54ff180e5c57e
p5060
aV54ff180e5c6f3
p5061
aV54ff180d17244
p5062
aV54ff180d1768c
p5063
aV54ff180d1779a
p5064
aV54ff180ce5c85
p5065
aV54ff180ce5db5
p5066
aV54ff180d15982
p5067
aV54ff180d15faf
p5068
aV54ff180d160df
p5069
aV54ff180d3fead
p5070
aV54ff180d6333a
p5071
aV54ff180d63af7
p5072
aV54ff180d63e08
p5073
aV54ff180d63f35
p5074
aV54ff180d6460a
p5075
aV54ff180d3ea1c
p5076
aV54ff180d3f03f
p5077
aV54ff180d3f541
p5078
aV54ff180d3f65f
p5079
aV54ff180d162ca
p5080
aV54ff180d1649d
p5081
aV54ff180e5bf4d
p5082
aV54ff180e5c08a
p5083
aV54ff180e5c832
p5084
aV54ff180d16e6b
p5085
aV54ff180d17457
p5086
aV54ff180d1753a
p5087
aV54ff180eb0e07
p5088
aV54ff180eb1b1f
p5089
aV54ff180eb2389
p5090
aV54ff180d3fae8
p5091
aV54ff180d3fcd8
p5092
aV54ff180e85e94
p5093
aV54ff180d40156
p5094
aV54ff180d6343d
p5095
aV54ff180d63533
p5096
aV54ff180e5d506
p5097
aV54ff180d17d36
p5098
aV54ff180d17ef9
p5099
aV54ff180d1823a
p5100
aV54ff180d3e89b
p5101
aV54ff180d3ec5b
p5102
aV54ff180d3eda4
p5103
aV54ff180d63c53
p5104
aV54ff180d63d23
p5105
aV54ff180d6442e
p5106
aV54ff180eb1009
p5107
aV54ff180d3f41e
p5108
aV54ff180d3f72e
p5109
aV54ff180d3f91e
p5110
aV54ff180d6589f
p5111
aV54ff180eb19c0
p5112
aV54ff180eb279d
p5113
aV54ff180d6381c
p5114
aV54ff180d63929
p5115
aV54ff180eb06af
p5116
aV54ff180d64256
p5117
aV54ff180eda830
p5118
aV54ff180edac57
p5119
aV54ff180edaeb9
p5120
aV54ff180d64706
p5121
aV54ff180d648ee
p5122
aV54ff180eda409
p5123
aV54ff180edb2e6
p5124
aV54ff180edb8a0
p5125
aV54ff180edb953
p5126
aV54ff180edb9fc
p5127
aV54ff180edbcae
p5128
aV54ff180edbf9b
p5129
aV54ff180edc246
p5130
aV54ff180edc974
p5131
aV54ff180f0eba4
p5132
aV54ff180f0ed3a
p5133
ass.