ccollections
defaultdict
p0
(c__builtin__
dict
p1
tp2
Rp3
Vendemicas_rio_de_janeiro
p4
g0
(c__builtin__
list
p5
tp6
Rp7
S'profile'
p8
(lp9
Vprofile:552d792f55622
p10
aVprofile:552d73836c660
p11
aVprofile:552d5a5517fc1
p12
aVprofile:552d72f45cf20
p13
aVprofile:552d11813151d
p14
aVprofile:551426afb66c9
p15
aVprofile:552d1fbc64652
p16
aVprofile:55254e5dd3505
p17
aVprofile:552d1ccf3efa9
p18
aVprofile:552d41d249ea0
p19
aVprofile:550b450dbed65
p20
aVprofile:552d5def5fb3c
p21
aVprofile:552d5baf72aae
p22
aVprofile:5530195e6f6d6
p23
aVprofile:552d2494b0936
p24
aVprofile:552e55246e190
p25
aVprofile:552d4fde7a51b
p26
aVprofile:552d3f17588ee
p27
aVprofile:552d270925de5
p28
aVprofile:552d231ac8b7c
p29
aVprofile:552d70f145087
p30
aVprofile:552d767bdf9f2
p31
aVprofile:550b4512ecea9
p32
aVprofile:552d53a579c86
p33
aVprofile:552d5d10f0d6a
p34
aVprofile:552d3bacd67e9
p35
aVprofile:552d468276546
p36
aVprofile:55253b5f91f98
p37
assVoutros
p38
g0
(g5
tp39
Rp40
sVnovas_especies
p41
g0
(g5
tp42
Rp43
g8
(lp44
Vprofile:5542cfc92dc93
p45
assVpan_bacia_alto_tocantins
p46
g0
(g5
tp47
Rp48
sVpan_grao_mogol
p49
g0
(g5
tp50
Rp51
sVpan_espinhaco_meridional
p52
g0
(g5
tp53
Rp54
sVlivro_vermelho_2013
p55
g0
(g5
tp56
Rp57
sVplantas_raras_do_cerrado
p58
g0
(g5
tp59
Rp60
sVespecies_indicadas
p61
g0
(g5
tp62
Rp63
sVpublic
p64
g0
(g5
tp65
Rp66
s.